GAS LISTING C:\Users\Marwan\AppData\Local\Temp\ccZ5CEyO.s 			page 1


   1              		.file	"main.cpp"
   2              		.text
   3              	Ltext0:
   4              		.cfi_sections	.debug_frame
   6              	_glutInit_ATEXIT_HACK@8:
   7              	LFB0:
   8              		.file 1 "C:/Program Files (x86)/CodeBlocks/MinGW/include/GL/glut.h"
   1:C:/Program Files (x86)/CodeBlocks/MinGW/include/GL\glut.h **** #ifndef __glut_h__
   2:C:/Program Files (x86)/CodeBlocks/MinGW/include/GL\glut.h **** #define __glut_h__
   3:C:/Program Files (x86)/CodeBlocks/MinGW/include/GL\glut.h **** 
   4:C:/Program Files (x86)/CodeBlocks/MinGW/include/GL\glut.h **** /* Copyright (c) Mark J. Kilgard, 1994, 1995, 1996, 1998. */
   5:C:/Program Files (x86)/CodeBlocks/MinGW/include/GL\glut.h **** 
   6:C:/Program Files (x86)/CodeBlocks/MinGW/include/GL\glut.h **** /* This program is freely distributable without licensing fees  and is
   7:C:/Program Files (x86)/CodeBlocks/MinGW/include/GL\glut.h ****    provided without guarantee or warrantee expressed or  implied. This
   8:C:/Program Files (x86)/CodeBlocks/MinGW/include/GL\glut.h ****    program is -not- in the public domain. */
   9:C:/Program Files (x86)/CodeBlocks/MinGW/include/GL\glut.h **** 
  10:C:/Program Files (x86)/CodeBlocks/MinGW/include/GL\glut.h **** #if defined(_WIN32)
  11:C:/Program Files (x86)/CodeBlocks/MinGW/include/GL\glut.h **** 
  12:C:/Program Files (x86)/CodeBlocks/MinGW/include/GL\glut.h **** /* GLUT 3.7 now tries to avoid including <windows.h>
  13:C:/Program Files (x86)/CodeBlocks/MinGW/include/GL\glut.h ****    to avoid name space pollution, but Win32's <GL/gl.h> 
  14:C:/Program Files (x86)/CodeBlocks/MinGW/include/GL\glut.h ****    needs APIENTRY and WINGDIAPI defined properly. */
  15:C:/Program Files (x86)/CodeBlocks/MinGW/include/GL\glut.h **** # if 0
  16:C:/Program Files (x86)/CodeBlocks/MinGW/include/GL\glut.h ****    /* This would put tons of macros and crap in our clean name space. */
  17:C:/Program Files (x86)/CodeBlocks/MinGW/include/GL\glut.h **** #  define  WIN32_LEAN_AND_MEAN
  18:C:/Program Files (x86)/CodeBlocks/MinGW/include/GL\glut.h **** #  include <windows.h>
  19:C:/Program Files (x86)/CodeBlocks/MinGW/include/GL\glut.h **** # else
  20:C:/Program Files (x86)/CodeBlocks/MinGW/include/GL\glut.h ****    /* XXX This is from Win32's <windef.h> */
  21:C:/Program Files (x86)/CodeBlocks/MinGW/include/GL\glut.h **** #  ifndef APIENTRY
  22:C:/Program Files (x86)/CodeBlocks/MinGW/include/GL\glut.h **** #   define GLUT_APIENTRY_DEFINED
  23:C:/Program Files (x86)/CodeBlocks/MinGW/include/GL\glut.h **** #   if (_MSC_VER >= 800) || defined(_STDCALL_SUPPORTED) || defined(__BORLANDC__) || defined(__LCC__
  24:C:/Program Files (x86)/CodeBlocks/MinGW/include/GL\glut.h **** #    define APIENTRY    __stdcall
  25:C:/Program Files (x86)/CodeBlocks/MinGW/include/GL\glut.h **** #   else
  26:C:/Program Files (x86)/CodeBlocks/MinGW/include/GL\glut.h **** #    define APIENTRY
  27:C:/Program Files (x86)/CodeBlocks/MinGW/include/GL\glut.h **** #   endif
  28:C:/Program Files (x86)/CodeBlocks/MinGW/include/GL\glut.h **** #  endif
  29:C:/Program Files (x86)/CodeBlocks/MinGW/include/GL\glut.h ****    /* XXX This is from Win32's <winnt.h> */
  30:C:/Program Files (x86)/CodeBlocks/MinGW/include/GL\glut.h **** #  ifndef CALLBACK
  31:C:/Program Files (x86)/CodeBlocks/MinGW/include/GL\glut.h **** #   if (defined(_M_MRX000) || defined(_M_IX86) || defined(_M_ALPHA) || defined(_M_PPC)) && !defined
  32:C:/Program Files (x86)/CodeBlocks/MinGW/include/GL\glut.h **** #    define CALLBACK __stdcall
  33:C:/Program Files (x86)/CodeBlocks/MinGW/include/GL\glut.h **** #   else
  34:C:/Program Files (x86)/CodeBlocks/MinGW/include/GL\glut.h **** #    define CALLBACK
  35:C:/Program Files (x86)/CodeBlocks/MinGW/include/GL\glut.h **** #   endif
  36:C:/Program Files (x86)/CodeBlocks/MinGW/include/GL\glut.h **** #  endif
  37:C:/Program Files (x86)/CodeBlocks/MinGW/include/GL\glut.h ****    /* XXX Hack for lcc compiler.  It doesn't support __declspec(dllimport), just __stdcall. */
  38:C:/Program Files (x86)/CodeBlocks/MinGW/include/GL\glut.h **** #  if defined( __LCC__ )
  39:C:/Program Files (x86)/CodeBlocks/MinGW/include/GL\glut.h **** #   undef WINGDIAPI
  40:C:/Program Files (x86)/CodeBlocks/MinGW/include/GL\glut.h **** #   define WINGDIAPI __stdcall
  41:C:/Program Files (x86)/CodeBlocks/MinGW/include/GL\glut.h **** #  else
  42:C:/Program Files (x86)/CodeBlocks/MinGW/include/GL\glut.h ****    /* XXX This is from Win32's <wingdi.h> and <winnt.h> */
  43:C:/Program Files (x86)/CodeBlocks/MinGW/include/GL\glut.h **** #   ifndef WINGDIAPI
  44:C:/Program Files (x86)/CodeBlocks/MinGW/include/GL\glut.h **** #    define GLUT_WINGDIAPI_DEFINED
  45:C:/Program Files (x86)/CodeBlocks/MinGW/include/GL\glut.h **** #    define WINGDIAPI __declspec(dllimport)
  46:C:/Program Files (x86)/CodeBlocks/MinGW/include/GL\glut.h **** #   endif
  47:C:/Program Files (x86)/CodeBlocks/MinGW/include/GL\glut.h **** #  endif
  48:C:/Program Files (x86)/CodeBlocks/MinGW/include/GL\glut.h ****    /* XXX This is from Win32's <ctype.h> */
  49:C:/Program Files (x86)/CodeBlocks/MinGW/include/GL\glut.h **** #  ifndef _WCHAR_T_DEFINED
  50:C:/Program Files (x86)/CodeBlocks/MinGW/include/GL\glut.h **** typedef unsigned short wchar_t;
GAS LISTING C:\Users\Marwan\AppData\Local\Temp\ccZ5CEyO.s 			page 2


  51:C:/Program Files (x86)/CodeBlocks/MinGW/include/GL\glut.h **** #   define _WCHAR_T_DEFINED
  52:C:/Program Files (x86)/CodeBlocks/MinGW/include/GL\glut.h **** #  endif
  53:C:/Program Files (x86)/CodeBlocks/MinGW/include/GL\glut.h **** # endif
  54:C:/Program Files (x86)/CodeBlocks/MinGW/include/GL\glut.h **** 
  55:C:/Program Files (x86)/CodeBlocks/MinGW/include/GL\glut.h **** /* To disable automatic library usage for GLUT, define GLUT_NO_LIB_PRAGMA
  56:C:/Program Files (x86)/CodeBlocks/MinGW/include/GL\glut.h ****    in your compile preprocessor options. */
  57:C:/Program Files (x86)/CodeBlocks/MinGW/include/GL\glut.h **** # if !defined(GLUT_BUILDING_LIB) && !defined(GLUT_NO_LIB_PRAGMA)
  58:C:/Program Files (x86)/CodeBlocks/MinGW/include/GL\glut.h **** #  pragma comment (lib, "winmm.lib")      /* link with Windows MultiMedia lib */
  59:C:/Program Files (x86)/CodeBlocks/MinGW/include/GL\glut.h **** /* To enable automatic SGI OpenGL for Windows library usage for GLUT,
  60:C:/Program Files (x86)/CodeBlocks/MinGW/include/GL\glut.h ****    define GLUT_USE_SGI_OPENGL in your compile preprocessor options.  */
  61:C:/Program Files (x86)/CodeBlocks/MinGW/include/GL\glut.h **** #  ifdef GLUT_USE_SGI_OPENGL
  62:C:/Program Files (x86)/CodeBlocks/MinGW/include/GL\glut.h **** #   pragma comment (lib, "opengl.lib")    /* link with SGI OpenGL for Windows lib */
  63:C:/Program Files (x86)/CodeBlocks/MinGW/include/GL\glut.h **** #   pragma comment (lib, "glu.lib")       /* link with SGI OpenGL Utility lib */
  64:C:/Program Files (x86)/CodeBlocks/MinGW/include/GL\glut.h **** #   pragma comment (lib, "glut.lib")      /* link with Win32 GLUT for SGI OpenGL lib */
  65:C:/Program Files (x86)/CodeBlocks/MinGW/include/GL\glut.h **** #  else
  66:C:/Program Files (x86)/CodeBlocks/MinGW/include/GL\glut.h **** #   pragma comment (lib, "opengl32.lib")  /* link with Microsoft OpenGL lib */
  67:C:/Program Files (x86)/CodeBlocks/MinGW/include/GL\glut.h **** #   pragma comment (lib, "glu32.lib")     /* link with Microsoft OpenGL Utility lib */
  68:C:/Program Files (x86)/CodeBlocks/MinGW/include/GL\glut.h **** #   pragma comment (lib, "glut32.lib")    /* link with Win32 GLUT lib */
  69:C:/Program Files (x86)/CodeBlocks/MinGW/include/GL\glut.h **** #  endif
  70:C:/Program Files (x86)/CodeBlocks/MinGW/include/GL\glut.h **** # endif
  71:C:/Program Files (x86)/CodeBlocks/MinGW/include/GL\glut.h **** 
  72:C:/Program Files (x86)/CodeBlocks/MinGW/include/GL\glut.h **** /* To disable supression of annoying warnings about floats being promoted
  73:C:/Program Files (x86)/CodeBlocks/MinGW/include/GL\glut.h ****    to doubles, define GLUT_NO_WARNING_DISABLE in your compile preprocessor
  74:C:/Program Files (x86)/CodeBlocks/MinGW/include/GL\glut.h ****    options. */
  75:C:/Program Files (x86)/CodeBlocks/MinGW/include/GL\glut.h **** # ifndef GLUT_NO_WARNING_DISABLE
  76:C:/Program Files (x86)/CodeBlocks/MinGW/include/GL\glut.h **** #  pragma warning (disable:4244)  /* Disable bogus VC++ 4.2 conversion warnings. */
  77:C:/Program Files (x86)/CodeBlocks/MinGW/include/GL\glut.h **** #  pragma warning (disable:4305)  /* VC++ 5.0 version of above warning. */
  78:C:/Program Files (x86)/CodeBlocks/MinGW/include/GL\glut.h **** # endif
  79:C:/Program Files (x86)/CodeBlocks/MinGW/include/GL\glut.h **** 
  80:C:/Program Files (x86)/CodeBlocks/MinGW/include/GL\glut.h **** /* Win32 has an annoying issue where there are multiple C run-time
  81:C:/Program Files (x86)/CodeBlocks/MinGW/include/GL\glut.h ****    libraries (CRTs).  If the executable is linked with a different CRT
  82:C:/Program Files (x86)/CodeBlocks/MinGW/include/GL\glut.h ****    from the GLUT DLL, the GLUT DLL will not share the same CRT static
  83:C:/Program Files (x86)/CodeBlocks/MinGW/include/GL\glut.h ****    data seen by the executable.  In particular, atexit callbacks registered
  84:C:/Program Files (x86)/CodeBlocks/MinGW/include/GL\glut.h ****    in the executable will not be called if GLUT calls its (different)
  85:C:/Program Files (x86)/CodeBlocks/MinGW/include/GL\glut.h ****    exit routine).  GLUT is typically built with the
  86:C:/Program Files (x86)/CodeBlocks/MinGW/include/GL\glut.h ****    "/MD" option (the CRT with multithreading DLL support), but the Visual
  87:C:/Program Files (x86)/CodeBlocks/MinGW/include/GL\glut.h ****    C++ linker default is "/ML" (the single threaded CRT).
  88:C:/Program Files (x86)/CodeBlocks/MinGW/include/GL\glut.h **** 
  89:C:/Program Files (x86)/CodeBlocks/MinGW/include/GL\glut.h ****    One workaround to this issue is requiring users to always link with
  90:C:/Program Files (x86)/CodeBlocks/MinGW/include/GL\glut.h ****    the same CRT as GLUT is compiled with.  That requires users supply a
  91:C:/Program Files (x86)/CodeBlocks/MinGW/include/GL\glut.h ****    non-standard option.  GLUT 3.7 has its own built-in workaround where
  92:C:/Program Files (x86)/CodeBlocks/MinGW/include/GL\glut.h ****    the executable's "exit" function pointer is covertly passed to GLUT.
  93:C:/Program Files (x86)/CodeBlocks/MinGW/include/GL\glut.h ****    GLUT then calls the executable's exit function pointer to ensure that
  94:C:/Program Files (x86)/CodeBlocks/MinGW/include/GL\glut.h ****    any "atexit" calls registered by the application are called if GLUT
  95:C:/Program Files (x86)/CodeBlocks/MinGW/include/GL\glut.h ****    needs to exit.
  96:C:/Program Files (x86)/CodeBlocks/MinGW/include/GL\glut.h **** 
  97:C:/Program Files (x86)/CodeBlocks/MinGW/include/GL\glut.h ****    Note that the __glut*WithExit routines should NEVER be called directly.
  98:C:/Program Files (x86)/CodeBlocks/MinGW/include/GL\glut.h ****    To avoid the atexit workaround, #define GLUT_DISABLE_ATEXIT_HACK. */
  99:C:/Program Files (x86)/CodeBlocks/MinGW/include/GL\glut.h **** 
 100:C:/Program Files (x86)/CodeBlocks/MinGW/include/GL\glut.h **** /* XXX This is from Win32's <process.h> */
 101:C:/Program Files (x86)/CodeBlocks/MinGW/include/GL\glut.h **** # if !defined(_MSC_VER) && !defined(__cdecl)
 102:C:/Program Files (x86)/CodeBlocks/MinGW/include/GL\glut.h ****    /* Define __cdecl for non-Microsoft compilers. */
 103:C:/Program Files (x86)/CodeBlocks/MinGW/include/GL\glut.h **** #  define __cdecl
 104:C:/Program Files (x86)/CodeBlocks/MinGW/include/GL\glut.h **** #  define GLUT_DEFINED___CDECL
 105:C:/Program Files (x86)/CodeBlocks/MinGW/include/GL\glut.h **** # endif
 106:C:/Program Files (x86)/CodeBlocks/MinGW/include/GL\glut.h **** # ifndef _CRTIMP
 107:C:/Program Files (x86)/CodeBlocks/MinGW/include/GL\glut.h **** #  ifdef _NTSDK
GAS LISTING C:\Users\Marwan\AppData\Local\Temp\ccZ5CEyO.s 			page 3


 108:C:/Program Files (x86)/CodeBlocks/MinGW/include/GL\glut.h ****     /* Definition compatible with NT SDK */
 109:C:/Program Files (x86)/CodeBlocks/MinGW/include/GL\glut.h **** #   define _CRTIMP
 110:C:/Program Files (x86)/CodeBlocks/MinGW/include/GL\glut.h **** #  else
 111:C:/Program Files (x86)/CodeBlocks/MinGW/include/GL\glut.h ****     /* Current definition */
 112:C:/Program Files (x86)/CodeBlocks/MinGW/include/GL\glut.h **** #   ifdef _DLL
 113:C:/Program Files (x86)/CodeBlocks/MinGW/include/GL\glut.h **** #    define _CRTIMP __declspec(dllimport)
 114:C:/Program Files (x86)/CodeBlocks/MinGW/include/GL\glut.h **** #   else
 115:C:/Program Files (x86)/CodeBlocks/MinGW/include/GL\glut.h **** #    define _CRTIMP
 116:C:/Program Files (x86)/CodeBlocks/MinGW/include/GL\glut.h **** #   endif
 117:C:/Program Files (x86)/CodeBlocks/MinGW/include/GL\glut.h **** #  endif
 118:C:/Program Files (x86)/CodeBlocks/MinGW/include/GL\glut.h **** #  define GLUT_DEFINED__CRTIMP
 119:C:/Program Files (x86)/CodeBlocks/MinGW/include/GL\glut.h **** # endif
 120:C:/Program Files (x86)/CodeBlocks/MinGW/include/GL\glut.h **** 
 121:C:/Program Files (x86)/CodeBlocks/MinGW/include/GL\glut.h **** /* GLUT API entry point declarations for Win32. */
 122:C:/Program Files (x86)/CodeBlocks/MinGW/include/GL\glut.h **** # ifdef GLUT_BUILDING_LIB
 123:C:/Program Files (x86)/CodeBlocks/MinGW/include/GL\glut.h **** #  define GLUTAPI __declspec(dllexport)
 124:C:/Program Files (x86)/CodeBlocks/MinGW/include/GL\glut.h **** # else
 125:C:/Program Files (x86)/CodeBlocks/MinGW/include/GL\glut.h **** #  ifdef _DLL
 126:C:/Program Files (x86)/CodeBlocks/MinGW/include/GL\glut.h **** #   define GLUTAPI __declspec(dllimport)
 127:C:/Program Files (x86)/CodeBlocks/MinGW/include/GL\glut.h **** #  else
 128:C:/Program Files (x86)/CodeBlocks/MinGW/include/GL\glut.h **** #   define GLUTAPI extern
 129:C:/Program Files (x86)/CodeBlocks/MinGW/include/GL\glut.h **** #  endif
 130:C:/Program Files (x86)/CodeBlocks/MinGW/include/GL\glut.h **** # endif
 131:C:/Program Files (x86)/CodeBlocks/MinGW/include/GL\glut.h **** 
 132:C:/Program Files (x86)/CodeBlocks/MinGW/include/GL\glut.h **** /* GLUT callback calling convention for Win32. */
 133:C:/Program Files (x86)/CodeBlocks/MinGW/include/GL\glut.h **** # define GLUTCALLBACK __cdecl
 134:C:/Program Files (x86)/CodeBlocks/MinGW/include/GL\glut.h **** 
 135:C:/Program Files (x86)/CodeBlocks/MinGW/include/GL\glut.h **** #endif  /* _WIN32 */
 136:C:/Program Files (x86)/CodeBlocks/MinGW/include/GL\glut.h **** 
 137:C:/Program Files (x86)/CodeBlocks/MinGW/include/GL\glut.h **** #include <GL/gl.h>
 138:C:/Program Files (x86)/CodeBlocks/MinGW/include/GL\glut.h **** #include <GL/glu.h>
 139:C:/Program Files (x86)/CodeBlocks/MinGW/include/GL\glut.h **** 
 140:C:/Program Files (x86)/CodeBlocks/MinGW/include/GL\glut.h **** #ifdef __cplusplus
 141:C:/Program Files (x86)/CodeBlocks/MinGW/include/GL\glut.h **** extern "C" {
 142:C:/Program Files (x86)/CodeBlocks/MinGW/include/GL\glut.h **** #endif
 143:C:/Program Files (x86)/CodeBlocks/MinGW/include/GL\glut.h **** 
 144:C:/Program Files (x86)/CodeBlocks/MinGW/include/GL\glut.h **** #if defined(_WIN32)
 145:C:/Program Files (x86)/CodeBlocks/MinGW/include/GL\glut.h **** # ifndef GLUT_BUILDING_LIB
 146:C:/Program Files (x86)/CodeBlocks/MinGW/include/GL\glut.h **** extern _CRTIMP void __cdecl exit(int);
 147:C:/Program Files (x86)/CodeBlocks/MinGW/include/GL\glut.h **** # endif
 148:C:/Program Files (x86)/CodeBlocks/MinGW/include/GL\glut.h **** #else
 149:C:/Program Files (x86)/CodeBlocks/MinGW/include/GL\glut.h **** /* non-Win32 case. */
 150:C:/Program Files (x86)/CodeBlocks/MinGW/include/GL\glut.h **** /* Define APIENTRY and CALLBACK to nothing if we aren't on Win32. */
 151:C:/Program Files (x86)/CodeBlocks/MinGW/include/GL\glut.h **** # define APIENTRY
 152:C:/Program Files (x86)/CodeBlocks/MinGW/include/GL\glut.h **** # define GLUT_APIENTRY_DEFINED
 153:C:/Program Files (x86)/CodeBlocks/MinGW/include/GL\glut.h **** # define CALLBACK
 154:C:/Program Files (x86)/CodeBlocks/MinGW/include/GL\glut.h **** /* Define GLUTAPI and GLUTCALLBACK as below if we aren't on Win32. */
 155:C:/Program Files (x86)/CodeBlocks/MinGW/include/GL\glut.h **** # define GLUTAPI extern
 156:C:/Program Files (x86)/CodeBlocks/MinGW/include/GL\glut.h **** # define GLUTCALLBACK
 157:C:/Program Files (x86)/CodeBlocks/MinGW/include/GL\glut.h **** /* Prototype exit for the non-Win32 case (see above). */
 158:C:/Program Files (x86)/CodeBlocks/MinGW/include/GL\glut.h **** extern void exit(int);
 159:C:/Program Files (x86)/CodeBlocks/MinGW/include/GL\glut.h **** #endif
 160:C:/Program Files (x86)/CodeBlocks/MinGW/include/GL\glut.h **** 
 161:C:/Program Files (x86)/CodeBlocks/MinGW/include/GL\glut.h **** /**
 162:C:/Program Files (x86)/CodeBlocks/MinGW/include/GL\glut.h ****  GLUT API revision history:
 163:C:/Program Files (x86)/CodeBlocks/MinGW/include/GL\glut.h ****  
 164:C:/Program Files (x86)/CodeBlocks/MinGW/include/GL\glut.h ****  GLUT_API_VERSION is updated to reflect incompatible GLUT
GAS LISTING C:\Users\Marwan\AppData\Local\Temp\ccZ5CEyO.s 			page 4


 165:C:/Program Files (x86)/CodeBlocks/MinGW/include/GL\glut.h ****  API changes (interface changes, semantic changes, deletions,
 166:C:/Program Files (x86)/CodeBlocks/MinGW/include/GL\glut.h ****  or additions).
 167:C:/Program Files (x86)/CodeBlocks/MinGW/include/GL\glut.h ****  
 168:C:/Program Files (x86)/CodeBlocks/MinGW/include/GL\glut.h ****  GLUT_API_VERSION=1  First public release of GLUT.  11/29/94
 169:C:/Program Files (x86)/CodeBlocks/MinGW/include/GL\glut.h **** 
 170:C:/Program Files (x86)/CodeBlocks/MinGW/include/GL\glut.h ****  GLUT_API_VERSION=2  Added support for OpenGL/GLX multisampling,
 171:C:/Program Files (x86)/CodeBlocks/MinGW/include/GL\glut.h ****  extension.  Supports new input devices like tablet, dial and button
 172:C:/Program Files (x86)/CodeBlocks/MinGW/include/GL\glut.h ****  box, and Spaceball.  Easy to query OpenGL extensions.
 173:C:/Program Files (x86)/CodeBlocks/MinGW/include/GL\glut.h **** 
 174:C:/Program Files (x86)/CodeBlocks/MinGW/include/GL\glut.h ****  GLUT_API_VERSION=3  glutMenuStatus added.
 175:C:/Program Files (x86)/CodeBlocks/MinGW/include/GL\glut.h **** 
 176:C:/Program Files (x86)/CodeBlocks/MinGW/include/GL\glut.h ****  GLUT_API_VERSION=4  glutInitDisplayString, glutWarpPointer,
 177:C:/Program Files (x86)/CodeBlocks/MinGW/include/GL\glut.h ****  glutBitmapLength, glutStrokeLength, glutWindowStatusFunc, dynamic
 178:C:/Program Files (x86)/CodeBlocks/MinGW/include/GL\glut.h ****  video resize subAPI, glutPostWindowRedisplay, glutKeyboardUpFunc,
 179:C:/Program Files (x86)/CodeBlocks/MinGW/include/GL\glut.h ****  glutSpecialUpFunc, glutIgnoreKeyRepeat, glutSetKeyRepeat,
 180:C:/Program Files (x86)/CodeBlocks/MinGW/include/GL\glut.h ****  glutJoystickFunc, glutForceJoystickFunc (NOT FINALIZED!).
 181:C:/Program Files (x86)/CodeBlocks/MinGW/include/GL\glut.h **** **/
 182:C:/Program Files (x86)/CodeBlocks/MinGW/include/GL\glut.h **** #ifndef GLUT_API_VERSION  /* allow this to be overriden */
 183:C:/Program Files (x86)/CodeBlocks/MinGW/include/GL\glut.h **** #define GLUT_API_VERSION		3
 184:C:/Program Files (x86)/CodeBlocks/MinGW/include/GL\glut.h **** #endif
 185:C:/Program Files (x86)/CodeBlocks/MinGW/include/GL\glut.h **** 
 186:C:/Program Files (x86)/CodeBlocks/MinGW/include/GL\glut.h **** /**
 187:C:/Program Files (x86)/CodeBlocks/MinGW/include/GL\glut.h ****  GLUT implementation revision history:
 188:C:/Program Files (x86)/CodeBlocks/MinGW/include/GL\glut.h ****  
 189:C:/Program Files (x86)/CodeBlocks/MinGW/include/GL\glut.h ****  GLUT_XLIB_IMPLEMENTATION is updated to reflect both GLUT
 190:C:/Program Files (x86)/CodeBlocks/MinGW/include/GL\glut.h ****  API revisions and implementation revisions (ie, bug fixes).
 191:C:/Program Files (x86)/CodeBlocks/MinGW/include/GL\glut.h **** 
 192:C:/Program Files (x86)/CodeBlocks/MinGW/include/GL\glut.h ****  GLUT_XLIB_IMPLEMENTATION=1  mjk's first public release of
 193:C:/Program Files (x86)/CodeBlocks/MinGW/include/GL\glut.h ****  GLUT Xlib-based implementation.  11/29/94
 194:C:/Program Files (x86)/CodeBlocks/MinGW/include/GL\glut.h **** 
 195:C:/Program Files (x86)/CodeBlocks/MinGW/include/GL\glut.h ****  GLUT_XLIB_IMPLEMENTATION=2  mjk's second public release of
 196:C:/Program Files (x86)/CodeBlocks/MinGW/include/GL\glut.h ****  GLUT Xlib-based implementation providing GLUT version 2 
 197:C:/Program Files (x86)/CodeBlocks/MinGW/include/GL\glut.h ****  interfaces.
 198:C:/Program Files (x86)/CodeBlocks/MinGW/include/GL\glut.h **** 
 199:C:/Program Files (x86)/CodeBlocks/MinGW/include/GL\glut.h ****  GLUT_XLIB_IMPLEMENTATION=3  mjk's GLUT 2.2 images. 4/17/95
 200:C:/Program Files (x86)/CodeBlocks/MinGW/include/GL\glut.h **** 
 201:C:/Program Files (x86)/CodeBlocks/MinGW/include/GL\glut.h ****  GLUT_XLIB_IMPLEMENTATION=4  mjk's GLUT 2.3 images. 6/?/95
 202:C:/Program Files (x86)/CodeBlocks/MinGW/include/GL\glut.h **** 
 203:C:/Program Files (x86)/CodeBlocks/MinGW/include/GL\glut.h ****  GLUT_XLIB_IMPLEMENTATION=5  mjk's GLUT 3.0 images. 10/?/95
 204:C:/Program Files (x86)/CodeBlocks/MinGW/include/GL\glut.h **** 
 205:C:/Program Files (x86)/CodeBlocks/MinGW/include/GL\glut.h ****  GLUT_XLIB_IMPLEMENTATION=7  mjk's GLUT 3.1+ with glutWarpPoitner.  7/24/96
 206:C:/Program Files (x86)/CodeBlocks/MinGW/include/GL\glut.h **** 
 207:C:/Program Files (x86)/CodeBlocks/MinGW/include/GL\glut.h ****  GLUT_XLIB_IMPLEMENTATION=8  mjk's GLUT 3.1+ with glutWarpPoitner
 208:C:/Program Files (x86)/CodeBlocks/MinGW/include/GL\glut.h ****  and video resize.  1/3/97
 209:C:/Program Files (x86)/CodeBlocks/MinGW/include/GL\glut.h **** 
 210:C:/Program Files (x86)/CodeBlocks/MinGW/include/GL\glut.h ****  GLUT_XLIB_IMPLEMENTATION=9 mjk's GLUT 3.4 release with early GLUT 4 routines.
 211:C:/Program Files (x86)/CodeBlocks/MinGW/include/GL\glut.h **** 
 212:C:/Program Files (x86)/CodeBlocks/MinGW/include/GL\glut.h ****  GLUT_XLIB_IMPLEMENTATION=11 Mesa 2.5's GLUT 3.6 release.
 213:C:/Program Files (x86)/CodeBlocks/MinGW/include/GL\glut.h **** 
 214:C:/Program Files (x86)/CodeBlocks/MinGW/include/GL\glut.h ****  GLUT_XLIB_IMPLEMENTATION=12 mjk's GLUT 3.6 release with early GLUT 4 routines + signal handling.
 215:C:/Program Files (x86)/CodeBlocks/MinGW/include/GL\glut.h **** 
 216:C:/Program Files (x86)/CodeBlocks/MinGW/include/GL\glut.h ****  GLUT_XLIB_IMPLEMENTATION=13 mjk's GLUT 3.7 beta with GameGLUT support.
 217:C:/Program Files (x86)/CodeBlocks/MinGW/include/GL\glut.h **** 
 218:C:/Program Files (x86)/CodeBlocks/MinGW/include/GL\glut.h ****  GLUT_XLIB_IMPLEMENTATION=14 mjk's GLUT 3.7 beta with f90gl friend interface.
 219:C:/Program Files (x86)/CodeBlocks/MinGW/include/GL\glut.h **** 
 220:C:/Program Files (x86)/CodeBlocks/MinGW/include/GL\glut.h ****  GLUT_XLIB_IMPLEMENTATION=15 mjk's GLUT 3.7 beta sync'ed with Mesa <GL/glut.h>
 221:C:/Program Files (x86)/CodeBlocks/MinGW/include/GL\glut.h **** **/
GAS LISTING C:\Users\Marwan\AppData\Local\Temp\ccZ5CEyO.s 			page 5


 222:C:/Program Files (x86)/CodeBlocks/MinGW/include/GL\glut.h **** #ifndef GLUT_XLIB_IMPLEMENTATION  /* Allow this to be overriden. */
 223:C:/Program Files (x86)/CodeBlocks/MinGW/include/GL\glut.h **** #define GLUT_XLIB_IMPLEMENTATION	15
 224:C:/Program Files (x86)/CodeBlocks/MinGW/include/GL\glut.h **** #endif
 225:C:/Program Files (x86)/CodeBlocks/MinGW/include/GL\glut.h **** 
 226:C:/Program Files (x86)/CodeBlocks/MinGW/include/GL\glut.h **** /* Display mode bit masks. */
 227:C:/Program Files (x86)/CodeBlocks/MinGW/include/GL\glut.h **** #define GLUT_RGB			0
 228:C:/Program Files (x86)/CodeBlocks/MinGW/include/GL\glut.h **** #define GLUT_RGBA			GLUT_RGB
 229:C:/Program Files (x86)/CodeBlocks/MinGW/include/GL\glut.h **** #define GLUT_INDEX			1
 230:C:/Program Files (x86)/CodeBlocks/MinGW/include/GL\glut.h **** #define GLUT_SINGLE			0
 231:C:/Program Files (x86)/CodeBlocks/MinGW/include/GL\glut.h **** #define GLUT_DOUBLE			2
 232:C:/Program Files (x86)/CodeBlocks/MinGW/include/GL\glut.h **** #define GLUT_ACCUM			4
 233:C:/Program Files (x86)/CodeBlocks/MinGW/include/GL\glut.h **** #define GLUT_ALPHA			8
 234:C:/Program Files (x86)/CodeBlocks/MinGW/include/GL\glut.h **** #define GLUT_DEPTH			16
 235:C:/Program Files (x86)/CodeBlocks/MinGW/include/GL\glut.h **** #define GLUT_STENCIL			32
 236:C:/Program Files (x86)/CodeBlocks/MinGW/include/GL\glut.h **** #if (GLUT_API_VERSION >= 2)
 237:C:/Program Files (x86)/CodeBlocks/MinGW/include/GL\glut.h **** #define GLUT_MULTISAMPLE		128
 238:C:/Program Files (x86)/CodeBlocks/MinGW/include/GL\glut.h **** #define GLUT_STEREO			256
 239:C:/Program Files (x86)/CodeBlocks/MinGW/include/GL\glut.h **** #endif
 240:C:/Program Files (x86)/CodeBlocks/MinGW/include/GL\glut.h **** #if (GLUT_API_VERSION >= 3)
 241:C:/Program Files (x86)/CodeBlocks/MinGW/include/GL\glut.h **** #define GLUT_LUMINANCE			512
 242:C:/Program Files (x86)/CodeBlocks/MinGW/include/GL\glut.h **** #endif
 243:C:/Program Files (x86)/CodeBlocks/MinGW/include/GL\glut.h **** 
 244:C:/Program Files (x86)/CodeBlocks/MinGW/include/GL\glut.h **** /* Mouse buttons. */
 245:C:/Program Files (x86)/CodeBlocks/MinGW/include/GL\glut.h **** #define GLUT_LEFT_BUTTON		0
 246:C:/Program Files (x86)/CodeBlocks/MinGW/include/GL\glut.h **** #define GLUT_MIDDLE_BUTTON		1
 247:C:/Program Files (x86)/CodeBlocks/MinGW/include/GL\glut.h **** #define GLUT_RIGHT_BUTTON		2
 248:C:/Program Files (x86)/CodeBlocks/MinGW/include/GL\glut.h **** 
 249:C:/Program Files (x86)/CodeBlocks/MinGW/include/GL\glut.h **** /* Mouse button  state. */
 250:C:/Program Files (x86)/CodeBlocks/MinGW/include/GL\glut.h **** #define GLUT_DOWN			0
 251:C:/Program Files (x86)/CodeBlocks/MinGW/include/GL\glut.h **** #define GLUT_UP				1
 252:C:/Program Files (x86)/CodeBlocks/MinGW/include/GL\glut.h **** 
 253:C:/Program Files (x86)/CodeBlocks/MinGW/include/GL\glut.h **** #if (GLUT_API_VERSION >= 2)
 254:C:/Program Files (x86)/CodeBlocks/MinGW/include/GL\glut.h **** /* function keys */
 255:C:/Program Files (x86)/CodeBlocks/MinGW/include/GL\glut.h **** #define GLUT_KEY_F1			1
 256:C:/Program Files (x86)/CodeBlocks/MinGW/include/GL\glut.h **** #define GLUT_KEY_F2			2
 257:C:/Program Files (x86)/CodeBlocks/MinGW/include/GL\glut.h **** #define GLUT_KEY_F3			3
 258:C:/Program Files (x86)/CodeBlocks/MinGW/include/GL\glut.h **** #define GLUT_KEY_F4			4
 259:C:/Program Files (x86)/CodeBlocks/MinGW/include/GL\glut.h **** #define GLUT_KEY_F5			5
 260:C:/Program Files (x86)/CodeBlocks/MinGW/include/GL\glut.h **** #define GLUT_KEY_F6			6
 261:C:/Program Files (x86)/CodeBlocks/MinGW/include/GL\glut.h **** #define GLUT_KEY_F7			7
 262:C:/Program Files (x86)/CodeBlocks/MinGW/include/GL\glut.h **** #define GLUT_KEY_F8			8
 263:C:/Program Files (x86)/CodeBlocks/MinGW/include/GL\glut.h **** #define GLUT_KEY_F9			9
 264:C:/Program Files (x86)/CodeBlocks/MinGW/include/GL\glut.h **** #define GLUT_KEY_F10			10
 265:C:/Program Files (x86)/CodeBlocks/MinGW/include/GL\glut.h **** #define GLUT_KEY_F11			11
 266:C:/Program Files (x86)/CodeBlocks/MinGW/include/GL\glut.h **** #define GLUT_KEY_F12			12
 267:C:/Program Files (x86)/CodeBlocks/MinGW/include/GL\glut.h **** /* directional keys */
 268:C:/Program Files (x86)/CodeBlocks/MinGW/include/GL\glut.h **** #define GLUT_KEY_LEFT			100
 269:C:/Program Files (x86)/CodeBlocks/MinGW/include/GL\glut.h **** #define GLUT_KEY_UP			101
 270:C:/Program Files (x86)/CodeBlocks/MinGW/include/GL\glut.h **** #define GLUT_KEY_RIGHT			102
 271:C:/Program Files (x86)/CodeBlocks/MinGW/include/GL\glut.h **** #define GLUT_KEY_DOWN			103
 272:C:/Program Files (x86)/CodeBlocks/MinGW/include/GL\glut.h **** #define GLUT_KEY_PAGE_UP		104
 273:C:/Program Files (x86)/CodeBlocks/MinGW/include/GL\glut.h **** #define GLUT_KEY_PAGE_DOWN		105
 274:C:/Program Files (x86)/CodeBlocks/MinGW/include/GL\glut.h **** #define GLUT_KEY_HOME			106
 275:C:/Program Files (x86)/CodeBlocks/MinGW/include/GL\glut.h **** #define GLUT_KEY_END			107
 276:C:/Program Files (x86)/CodeBlocks/MinGW/include/GL\glut.h **** #define GLUT_KEY_INSERT			108
 277:C:/Program Files (x86)/CodeBlocks/MinGW/include/GL\glut.h **** #endif
 278:C:/Program Files (x86)/CodeBlocks/MinGW/include/GL\glut.h **** 
GAS LISTING C:\Users\Marwan\AppData\Local\Temp\ccZ5CEyO.s 			page 6


 279:C:/Program Files (x86)/CodeBlocks/MinGW/include/GL\glut.h **** /* Entry/exit  state. */
 280:C:/Program Files (x86)/CodeBlocks/MinGW/include/GL\glut.h **** #define GLUT_LEFT			0
 281:C:/Program Files (x86)/CodeBlocks/MinGW/include/GL\glut.h **** #define GLUT_ENTERED			1
 282:C:/Program Files (x86)/CodeBlocks/MinGW/include/GL\glut.h **** 
 283:C:/Program Files (x86)/CodeBlocks/MinGW/include/GL\glut.h **** /* Menu usage  state. */
 284:C:/Program Files (x86)/CodeBlocks/MinGW/include/GL\glut.h **** #define GLUT_MENU_NOT_IN_USE		0
 285:C:/Program Files (x86)/CodeBlocks/MinGW/include/GL\glut.h **** #define GLUT_MENU_IN_USE		1
 286:C:/Program Files (x86)/CodeBlocks/MinGW/include/GL\glut.h **** 
 287:C:/Program Files (x86)/CodeBlocks/MinGW/include/GL\glut.h **** /* Visibility  state. */
 288:C:/Program Files (x86)/CodeBlocks/MinGW/include/GL\glut.h **** #define GLUT_NOT_VISIBLE		0
 289:C:/Program Files (x86)/CodeBlocks/MinGW/include/GL\glut.h **** #define GLUT_VISIBLE			1
 290:C:/Program Files (x86)/CodeBlocks/MinGW/include/GL\glut.h **** 
 291:C:/Program Files (x86)/CodeBlocks/MinGW/include/GL\glut.h **** /* Window status  state. */
 292:C:/Program Files (x86)/CodeBlocks/MinGW/include/GL\glut.h **** #define GLUT_HIDDEN			0
 293:C:/Program Files (x86)/CodeBlocks/MinGW/include/GL\glut.h **** #define GLUT_FULLY_RETAINED		1
 294:C:/Program Files (x86)/CodeBlocks/MinGW/include/GL\glut.h **** #define GLUT_PARTIALLY_RETAINED		2
 295:C:/Program Files (x86)/CodeBlocks/MinGW/include/GL\glut.h **** #define GLUT_FULLY_COVERED		3
 296:C:/Program Files (x86)/CodeBlocks/MinGW/include/GL\glut.h **** 
 297:C:/Program Files (x86)/CodeBlocks/MinGW/include/GL\glut.h **** /* Color index component selection values. */
 298:C:/Program Files (x86)/CodeBlocks/MinGW/include/GL\glut.h **** #define GLUT_RED			0
 299:C:/Program Files (x86)/CodeBlocks/MinGW/include/GL\glut.h **** #define GLUT_GREEN			1
 300:C:/Program Files (x86)/CodeBlocks/MinGW/include/GL\glut.h **** #define GLUT_BLUE			2
 301:C:/Program Files (x86)/CodeBlocks/MinGW/include/GL\glut.h **** 
 302:C:/Program Files (x86)/CodeBlocks/MinGW/include/GL\glut.h **** #if defined(_WIN32)
 303:C:/Program Files (x86)/CodeBlocks/MinGW/include/GL\glut.h **** /* Stroke font constants (use these in GLUT program). */
 304:C:/Program Files (x86)/CodeBlocks/MinGW/include/GL\glut.h **** #define GLUT_STROKE_ROMAN		((void*)0)
 305:C:/Program Files (x86)/CodeBlocks/MinGW/include/GL\glut.h **** #define GLUT_STROKE_MONO_ROMAN		((void*)1)
 306:C:/Program Files (x86)/CodeBlocks/MinGW/include/GL\glut.h **** 
 307:C:/Program Files (x86)/CodeBlocks/MinGW/include/GL\glut.h **** /* Bitmap font constants (use these in GLUT program). */
 308:C:/Program Files (x86)/CodeBlocks/MinGW/include/GL\glut.h **** #define GLUT_BITMAP_9_BY_15		((void*)2)
 309:C:/Program Files (x86)/CodeBlocks/MinGW/include/GL\glut.h **** #define GLUT_BITMAP_8_BY_13		((void*)3)
 310:C:/Program Files (x86)/CodeBlocks/MinGW/include/GL\glut.h **** #define GLUT_BITMAP_TIMES_ROMAN_10	((void*)4)
 311:C:/Program Files (x86)/CodeBlocks/MinGW/include/GL\glut.h **** #define GLUT_BITMAP_TIMES_ROMAN_24	((void*)5)
 312:C:/Program Files (x86)/CodeBlocks/MinGW/include/GL\glut.h **** #if (GLUT_API_VERSION >= 3)
 313:C:/Program Files (x86)/CodeBlocks/MinGW/include/GL\glut.h **** #define GLUT_BITMAP_HELVETICA_10	((void*)6)
 314:C:/Program Files (x86)/CodeBlocks/MinGW/include/GL\glut.h **** #define GLUT_BITMAP_HELVETICA_12	((void*)7)
 315:C:/Program Files (x86)/CodeBlocks/MinGW/include/GL\glut.h **** #define GLUT_BITMAP_HELVETICA_18	((void*)8)
 316:C:/Program Files (x86)/CodeBlocks/MinGW/include/GL\glut.h **** #endif
 317:C:/Program Files (x86)/CodeBlocks/MinGW/include/GL\glut.h **** #else
 318:C:/Program Files (x86)/CodeBlocks/MinGW/include/GL\glut.h **** /* Stroke font opaque addresses (use constants instead in source code). */
 319:C:/Program Files (x86)/CodeBlocks/MinGW/include/GL\glut.h **** GLUTAPI void *glutStrokeRoman;
 320:C:/Program Files (x86)/CodeBlocks/MinGW/include/GL\glut.h **** GLUTAPI void *glutStrokeMonoRoman;
 321:C:/Program Files (x86)/CodeBlocks/MinGW/include/GL\glut.h **** 
 322:C:/Program Files (x86)/CodeBlocks/MinGW/include/GL\glut.h **** /* Stroke font constants (use these in GLUT program). */
 323:C:/Program Files (x86)/CodeBlocks/MinGW/include/GL\glut.h **** #define GLUT_STROKE_ROMAN		(&glutStrokeRoman)
 324:C:/Program Files (x86)/CodeBlocks/MinGW/include/GL\glut.h **** #define GLUT_STROKE_MONO_ROMAN		(&glutStrokeMonoRoman)
 325:C:/Program Files (x86)/CodeBlocks/MinGW/include/GL\glut.h **** 
 326:C:/Program Files (x86)/CodeBlocks/MinGW/include/GL\glut.h **** /* Bitmap font opaque addresses (use constants instead in source code). */
 327:C:/Program Files (x86)/CodeBlocks/MinGW/include/GL\glut.h **** GLUTAPI void *glutBitmap9By15;
 328:C:/Program Files (x86)/CodeBlocks/MinGW/include/GL\glut.h **** GLUTAPI void *glutBitmap8By13;
 329:C:/Program Files (x86)/CodeBlocks/MinGW/include/GL\glut.h **** GLUTAPI void *glutBitmapTimesRoman10;
 330:C:/Program Files (x86)/CodeBlocks/MinGW/include/GL\glut.h **** GLUTAPI void *glutBitmapTimesRoman24;
 331:C:/Program Files (x86)/CodeBlocks/MinGW/include/GL\glut.h **** GLUTAPI void *glutBitmapHelvetica10;
 332:C:/Program Files (x86)/CodeBlocks/MinGW/include/GL\glut.h **** GLUTAPI void *glutBitmapHelvetica12;
 333:C:/Program Files (x86)/CodeBlocks/MinGW/include/GL\glut.h **** GLUTAPI void *glutBitmapHelvetica18;
 334:C:/Program Files (x86)/CodeBlocks/MinGW/include/GL\glut.h **** 
 335:C:/Program Files (x86)/CodeBlocks/MinGW/include/GL\glut.h **** /* Bitmap font constants (use these in GLUT program). */
GAS LISTING C:\Users\Marwan\AppData\Local\Temp\ccZ5CEyO.s 			page 7


 336:C:/Program Files (x86)/CodeBlocks/MinGW/include/GL\glut.h **** #define GLUT_BITMAP_9_BY_15		(&glutBitmap9By15)
 337:C:/Program Files (x86)/CodeBlocks/MinGW/include/GL\glut.h **** #define GLUT_BITMAP_8_BY_13		(&glutBitmap8By13)
 338:C:/Program Files (x86)/CodeBlocks/MinGW/include/GL\glut.h **** #define GLUT_BITMAP_TIMES_ROMAN_10	(&glutBitmapTimesRoman10)
 339:C:/Program Files (x86)/CodeBlocks/MinGW/include/GL\glut.h **** #define GLUT_BITMAP_TIMES_ROMAN_24	(&glutBitmapTimesRoman24)
 340:C:/Program Files (x86)/CodeBlocks/MinGW/include/GL\glut.h **** #if (GLUT_API_VERSION >= 3)
 341:C:/Program Files (x86)/CodeBlocks/MinGW/include/GL\glut.h **** #define GLUT_BITMAP_HELVETICA_10	(&glutBitmapHelvetica10)
 342:C:/Program Files (x86)/CodeBlocks/MinGW/include/GL\glut.h **** #define GLUT_BITMAP_HELVETICA_12	(&glutBitmapHelvetica12)
 343:C:/Program Files (x86)/CodeBlocks/MinGW/include/GL\glut.h **** #define GLUT_BITMAP_HELVETICA_18	(&glutBitmapHelvetica18)
 344:C:/Program Files (x86)/CodeBlocks/MinGW/include/GL\glut.h **** #endif
 345:C:/Program Files (x86)/CodeBlocks/MinGW/include/GL\glut.h **** #endif
 346:C:/Program Files (x86)/CodeBlocks/MinGW/include/GL\glut.h **** 
 347:C:/Program Files (x86)/CodeBlocks/MinGW/include/GL\glut.h **** /* glutGet parameters. */
 348:C:/Program Files (x86)/CodeBlocks/MinGW/include/GL\glut.h **** #define GLUT_WINDOW_X			((GLenum) 100)
 349:C:/Program Files (x86)/CodeBlocks/MinGW/include/GL\glut.h **** #define GLUT_WINDOW_Y			((GLenum) 101)
 350:C:/Program Files (x86)/CodeBlocks/MinGW/include/GL\glut.h **** #define GLUT_WINDOW_WIDTH		((GLenum) 102)
 351:C:/Program Files (x86)/CodeBlocks/MinGW/include/GL\glut.h **** #define GLUT_WINDOW_HEIGHT		((GLenum) 103)
 352:C:/Program Files (x86)/CodeBlocks/MinGW/include/GL\glut.h **** #define GLUT_WINDOW_BUFFER_SIZE		((GLenum) 104)
 353:C:/Program Files (x86)/CodeBlocks/MinGW/include/GL\glut.h **** #define GLUT_WINDOW_STENCIL_SIZE	((GLenum) 105)
 354:C:/Program Files (x86)/CodeBlocks/MinGW/include/GL\glut.h **** #define GLUT_WINDOW_DEPTH_SIZE		((GLenum) 106)
 355:C:/Program Files (x86)/CodeBlocks/MinGW/include/GL\glut.h **** #define GLUT_WINDOW_RED_SIZE		((GLenum) 107)
 356:C:/Program Files (x86)/CodeBlocks/MinGW/include/GL\glut.h **** #define GLUT_WINDOW_GREEN_SIZE		((GLenum) 108)
 357:C:/Program Files (x86)/CodeBlocks/MinGW/include/GL\glut.h **** #define GLUT_WINDOW_BLUE_SIZE		((GLenum) 109)
 358:C:/Program Files (x86)/CodeBlocks/MinGW/include/GL\glut.h **** #define GLUT_WINDOW_ALPHA_SIZE		((GLenum) 110)
 359:C:/Program Files (x86)/CodeBlocks/MinGW/include/GL\glut.h **** #define GLUT_WINDOW_ACCUM_RED_SIZE	((GLenum) 111)
 360:C:/Program Files (x86)/CodeBlocks/MinGW/include/GL\glut.h **** #define GLUT_WINDOW_ACCUM_GREEN_SIZE	((GLenum) 112)
 361:C:/Program Files (x86)/CodeBlocks/MinGW/include/GL\glut.h **** #define GLUT_WINDOW_ACCUM_BLUE_SIZE	((GLenum) 113)
 362:C:/Program Files (x86)/CodeBlocks/MinGW/include/GL\glut.h **** #define GLUT_WINDOW_ACCUM_ALPHA_SIZE	((GLenum) 114)
 363:C:/Program Files (x86)/CodeBlocks/MinGW/include/GL\glut.h **** #define GLUT_WINDOW_DOUBLEBUFFER	((GLenum) 115)
 364:C:/Program Files (x86)/CodeBlocks/MinGW/include/GL\glut.h **** #define GLUT_WINDOW_RGBA		((GLenum) 116)
 365:C:/Program Files (x86)/CodeBlocks/MinGW/include/GL\glut.h **** #define GLUT_WINDOW_PARENT		((GLenum) 117)
 366:C:/Program Files (x86)/CodeBlocks/MinGW/include/GL\glut.h **** #define GLUT_WINDOW_NUM_CHILDREN	((GLenum) 118)
 367:C:/Program Files (x86)/CodeBlocks/MinGW/include/GL\glut.h **** #define GLUT_WINDOW_COLORMAP_SIZE	((GLenum) 119)
 368:C:/Program Files (x86)/CodeBlocks/MinGW/include/GL\glut.h **** #if (GLUT_API_VERSION >= 2)
 369:C:/Program Files (x86)/CodeBlocks/MinGW/include/GL\glut.h **** #define GLUT_WINDOW_NUM_SAMPLES		((GLenum) 120)
 370:C:/Program Files (x86)/CodeBlocks/MinGW/include/GL\glut.h **** #define GLUT_WINDOW_STEREO		((GLenum) 121)
 371:C:/Program Files (x86)/CodeBlocks/MinGW/include/GL\glut.h **** #endif
 372:C:/Program Files (x86)/CodeBlocks/MinGW/include/GL\glut.h **** #if (GLUT_API_VERSION >= 3)
 373:C:/Program Files (x86)/CodeBlocks/MinGW/include/GL\glut.h **** #define GLUT_WINDOW_CURSOR		((GLenum) 122)
 374:C:/Program Files (x86)/CodeBlocks/MinGW/include/GL\glut.h **** #endif
 375:C:/Program Files (x86)/CodeBlocks/MinGW/include/GL\glut.h **** #define GLUT_SCREEN_WIDTH		((GLenum) 200)
 376:C:/Program Files (x86)/CodeBlocks/MinGW/include/GL\glut.h **** #define GLUT_SCREEN_HEIGHT		((GLenum) 201)
 377:C:/Program Files (x86)/CodeBlocks/MinGW/include/GL\glut.h **** #define GLUT_SCREEN_WIDTH_MM		((GLenum) 202)
 378:C:/Program Files (x86)/CodeBlocks/MinGW/include/GL\glut.h **** #define GLUT_SCREEN_HEIGHT_MM		((GLenum) 203)
 379:C:/Program Files (x86)/CodeBlocks/MinGW/include/GL\glut.h **** #define GLUT_MENU_NUM_ITEMS		((GLenum) 300)
 380:C:/Program Files (x86)/CodeBlocks/MinGW/include/GL\glut.h **** #define GLUT_DISPLAY_MODE_POSSIBLE	((GLenum) 400)
 381:C:/Program Files (x86)/CodeBlocks/MinGW/include/GL\glut.h **** #define GLUT_INIT_WINDOW_X		((GLenum) 500)
 382:C:/Program Files (x86)/CodeBlocks/MinGW/include/GL\glut.h **** #define GLUT_INIT_WINDOW_Y		((GLenum) 501)
 383:C:/Program Files (x86)/CodeBlocks/MinGW/include/GL\glut.h **** #define GLUT_INIT_WINDOW_WIDTH		((GLenum) 502)
 384:C:/Program Files (x86)/CodeBlocks/MinGW/include/GL\glut.h **** #define GLUT_INIT_WINDOW_HEIGHT		((GLenum) 503)
 385:C:/Program Files (x86)/CodeBlocks/MinGW/include/GL\glut.h **** #define GLUT_INIT_DISPLAY_MODE		((GLenum) 504)
 386:C:/Program Files (x86)/CodeBlocks/MinGW/include/GL\glut.h **** #if (GLUT_API_VERSION >= 2)
 387:C:/Program Files (x86)/CodeBlocks/MinGW/include/GL\glut.h **** #define GLUT_ELAPSED_TIME		((GLenum) 700)
 388:C:/Program Files (x86)/CodeBlocks/MinGW/include/GL\glut.h **** #endif
 389:C:/Program Files (x86)/CodeBlocks/MinGW/include/GL\glut.h **** #if (GLUT_API_VERSION >= 4 || GLUT_XLIB_IMPLEMENTATION >= 13)
 390:C:/Program Files (x86)/CodeBlocks/MinGW/include/GL\glut.h **** #define GLUT_WINDOW_FORMAT_ID		((GLenum) 123)
 391:C:/Program Files (x86)/CodeBlocks/MinGW/include/GL\glut.h **** #endif
 392:C:/Program Files (x86)/CodeBlocks/MinGW/include/GL\glut.h **** 
GAS LISTING C:\Users\Marwan\AppData\Local\Temp\ccZ5CEyO.s 			page 8


 393:C:/Program Files (x86)/CodeBlocks/MinGW/include/GL\glut.h **** #if (GLUT_API_VERSION >= 2)
 394:C:/Program Files (x86)/CodeBlocks/MinGW/include/GL\glut.h **** /* glutDeviceGet parameters. */
 395:C:/Program Files (x86)/CodeBlocks/MinGW/include/GL\glut.h **** #define GLUT_HAS_KEYBOARD		((GLenum) 600)
 396:C:/Program Files (x86)/CodeBlocks/MinGW/include/GL\glut.h **** #define GLUT_HAS_MOUSE			((GLenum) 601)
 397:C:/Program Files (x86)/CodeBlocks/MinGW/include/GL\glut.h **** #define GLUT_HAS_SPACEBALL		((GLenum) 602)
 398:C:/Program Files (x86)/CodeBlocks/MinGW/include/GL\glut.h **** #define GLUT_HAS_DIAL_AND_BUTTON_BOX	((GLenum) 603)
 399:C:/Program Files (x86)/CodeBlocks/MinGW/include/GL\glut.h **** #define GLUT_HAS_TABLET			((GLenum) 604)
 400:C:/Program Files (x86)/CodeBlocks/MinGW/include/GL\glut.h **** #define GLUT_NUM_MOUSE_BUTTONS		((GLenum) 605)
 401:C:/Program Files (x86)/CodeBlocks/MinGW/include/GL\glut.h **** #define GLUT_NUM_SPACEBALL_BUTTONS	((GLenum) 606)
 402:C:/Program Files (x86)/CodeBlocks/MinGW/include/GL\glut.h **** #define GLUT_NUM_BUTTON_BOX_BUTTONS	((GLenum) 607)
 403:C:/Program Files (x86)/CodeBlocks/MinGW/include/GL\glut.h **** #define GLUT_NUM_DIALS			((GLenum) 608)
 404:C:/Program Files (x86)/CodeBlocks/MinGW/include/GL\glut.h **** #define GLUT_NUM_TABLET_BUTTONS		((GLenum) 609)
 405:C:/Program Files (x86)/CodeBlocks/MinGW/include/GL\glut.h **** #endif
 406:C:/Program Files (x86)/CodeBlocks/MinGW/include/GL\glut.h **** #if (GLUT_API_VERSION >= 4 || GLUT_XLIB_IMPLEMENTATION >= 13)
 407:C:/Program Files (x86)/CodeBlocks/MinGW/include/GL\glut.h **** #define GLUT_DEVICE_IGNORE_KEY_REPEAT   ((GLenum) 610)
 408:C:/Program Files (x86)/CodeBlocks/MinGW/include/GL\glut.h **** #define GLUT_DEVICE_KEY_REPEAT          ((GLenum) 611)
 409:C:/Program Files (x86)/CodeBlocks/MinGW/include/GL\glut.h **** #define GLUT_HAS_JOYSTICK		((GLenum) 612)
 410:C:/Program Files (x86)/CodeBlocks/MinGW/include/GL\glut.h **** #define GLUT_OWNS_JOYSTICK		((GLenum) 613)
 411:C:/Program Files (x86)/CodeBlocks/MinGW/include/GL\glut.h **** #define GLUT_JOYSTICK_BUTTONS		((GLenum) 614)
 412:C:/Program Files (x86)/CodeBlocks/MinGW/include/GL\glut.h **** #define GLUT_JOYSTICK_AXES		((GLenum) 615)
 413:C:/Program Files (x86)/CodeBlocks/MinGW/include/GL\glut.h **** #define GLUT_JOYSTICK_POLL_RATE		((GLenum) 616)
 414:C:/Program Files (x86)/CodeBlocks/MinGW/include/GL\glut.h **** #endif
 415:C:/Program Files (x86)/CodeBlocks/MinGW/include/GL\glut.h **** 
 416:C:/Program Files (x86)/CodeBlocks/MinGW/include/GL\glut.h **** #if (GLUT_API_VERSION >= 3)
 417:C:/Program Files (x86)/CodeBlocks/MinGW/include/GL\glut.h **** /* glutLayerGet parameters. */
 418:C:/Program Files (x86)/CodeBlocks/MinGW/include/GL\glut.h **** #define GLUT_OVERLAY_POSSIBLE           ((GLenum) 800)
 419:C:/Program Files (x86)/CodeBlocks/MinGW/include/GL\glut.h **** #define GLUT_LAYER_IN_USE		((GLenum) 801)
 420:C:/Program Files (x86)/CodeBlocks/MinGW/include/GL\glut.h **** #define GLUT_HAS_OVERLAY		((GLenum) 802)
 421:C:/Program Files (x86)/CodeBlocks/MinGW/include/GL\glut.h **** #define GLUT_TRANSPARENT_INDEX		((GLenum) 803)
 422:C:/Program Files (x86)/CodeBlocks/MinGW/include/GL\glut.h **** #define GLUT_NORMAL_DAMAGED		((GLenum) 804)
 423:C:/Program Files (x86)/CodeBlocks/MinGW/include/GL\glut.h **** #define GLUT_OVERLAY_DAMAGED		((GLenum) 805)
 424:C:/Program Files (x86)/CodeBlocks/MinGW/include/GL\glut.h **** 
 425:C:/Program Files (x86)/CodeBlocks/MinGW/include/GL\glut.h **** #if (GLUT_API_VERSION >= 4 || GLUT_XLIB_IMPLEMENTATION >= 9)
 426:C:/Program Files (x86)/CodeBlocks/MinGW/include/GL\glut.h **** /* glutVideoResizeGet parameters. */
 427:C:/Program Files (x86)/CodeBlocks/MinGW/include/GL\glut.h **** #define GLUT_VIDEO_RESIZE_POSSIBLE	((GLenum) 900)
 428:C:/Program Files (x86)/CodeBlocks/MinGW/include/GL\glut.h **** #define GLUT_VIDEO_RESIZE_IN_USE	((GLenum) 901)
 429:C:/Program Files (x86)/CodeBlocks/MinGW/include/GL\glut.h **** #define GLUT_VIDEO_RESIZE_X_DELTA	((GLenum) 902)
 430:C:/Program Files (x86)/CodeBlocks/MinGW/include/GL\glut.h **** #define GLUT_VIDEO_RESIZE_Y_DELTA	((GLenum) 903)
 431:C:/Program Files (x86)/CodeBlocks/MinGW/include/GL\glut.h **** #define GLUT_VIDEO_RESIZE_WIDTH_DELTA	((GLenum) 904)
 432:C:/Program Files (x86)/CodeBlocks/MinGW/include/GL\glut.h **** #define GLUT_VIDEO_RESIZE_HEIGHT_DELTA	((GLenum) 905)
 433:C:/Program Files (x86)/CodeBlocks/MinGW/include/GL\glut.h **** #define GLUT_VIDEO_RESIZE_X		((GLenum) 906)
 434:C:/Program Files (x86)/CodeBlocks/MinGW/include/GL\glut.h **** #define GLUT_VIDEO_RESIZE_Y		((GLenum) 907)
 435:C:/Program Files (x86)/CodeBlocks/MinGW/include/GL\glut.h **** #define GLUT_VIDEO_RESIZE_WIDTH		((GLenum) 908)
 436:C:/Program Files (x86)/CodeBlocks/MinGW/include/GL\glut.h **** #define GLUT_VIDEO_RESIZE_HEIGHT	((GLenum) 909)
 437:C:/Program Files (x86)/CodeBlocks/MinGW/include/GL\glut.h **** #endif
 438:C:/Program Files (x86)/CodeBlocks/MinGW/include/GL\glut.h **** 
 439:C:/Program Files (x86)/CodeBlocks/MinGW/include/GL\glut.h **** /* glutUseLayer parameters. */
 440:C:/Program Files (x86)/CodeBlocks/MinGW/include/GL\glut.h **** #define GLUT_NORMAL			((GLenum) 0)
 441:C:/Program Files (x86)/CodeBlocks/MinGW/include/GL\glut.h **** #define GLUT_OVERLAY			((GLenum) 1)
 442:C:/Program Files (x86)/CodeBlocks/MinGW/include/GL\glut.h **** 
 443:C:/Program Files (x86)/CodeBlocks/MinGW/include/GL\glut.h **** /* glutGetModifiers return mask. */
 444:C:/Program Files (x86)/CodeBlocks/MinGW/include/GL\glut.h **** #define GLUT_ACTIVE_SHIFT               1
 445:C:/Program Files (x86)/CodeBlocks/MinGW/include/GL\glut.h **** #define GLUT_ACTIVE_CTRL                2
 446:C:/Program Files (x86)/CodeBlocks/MinGW/include/GL\glut.h **** #define GLUT_ACTIVE_ALT                 4
 447:C:/Program Files (x86)/CodeBlocks/MinGW/include/GL\glut.h **** 
 448:C:/Program Files (x86)/CodeBlocks/MinGW/include/GL\glut.h **** /* glutSetCursor parameters. */
 449:C:/Program Files (x86)/CodeBlocks/MinGW/include/GL\glut.h **** /* Basic arrows. */
GAS LISTING C:\Users\Marwan\AppData\Local\Temp\ccZ5CEyO.s 			page 9


 450:C:/Program Files (x86)/CodeBlocks/MinGW/include/GL\glut.h **** #define GLUT_CURSOR_RIGHT_ARROW		0
 451:C:/Program Files (x86)/CodeBlocks/MinGW/include/GL\glut.h **** #define GLUT_CURSOR_LEFT_ARROW		1
 452:C:/Program Files (x86)/CodeBlocks/MinGW/include/GL\glut.h **** /* Symbolic cursor shapes. */
 453:C:/Program Files (x86)/CodeBlocks/MinGW/include/GL\glut.h **** #define GLUT_CURSOR_INFO		2
 454:C:/Program Files (x86)/CodeBlocks/MinGW/include/GL\glut.h **** #define GLUT_CURSOR_DESTROY		3
 455:C:/Program Files (x86)/CodeBlocks/MinGW/include/GL\glut.h **** #define GLUT_CURSOR_HELP		4
 456:C:/Program Files (x86)/CodeBlocks/MinGW/include/GL\glut.h **** #define GLUT_CURSOR_CYCLE		5
 457:C:/Program Files (x86)/CodeBlocks/MinGW/include/GL\glut.h **** #define GLUT_CURSOR_SPRAY		6
 458:C:/Program Files (x86)/CodeBlocks/MinGW/include/GL\glut.h **** #define GLUT_CURSOR_WAIT		7
 459:C:/Program Files (x86)/CodeBlocks/MinGW/include/GL\glut.h **** #define GLUT_CURSOR_TEXT		8
 460:C:/Program Files (x86)/CodeBlocks/MinGW/include/GL\glut.h **** #define GLUT_CURSOR_CROSSHAIR		9
 461:C:/Program Files (x86)/CodeBlocks/MinGW/include/GL\glut.h **** /* Directional cursors. */
 462:C:/Program Files (x86)/CodeBlocks/MinGW/include/GL\glut.h **** #define GLUT_CURSOR_UP_DOWN		10
 463:C:/Program Files (x86)/CodeBlocks/MinGW/include/GL\glut.h **** #define GLUT_CURSOR_LEFT_RIGHT		11
 464:C:/Program Files (x86)/CodeBlocks/MinGW/include/GL\glut.h **** /* Sizing cursors. */
 465:C:/Program Files (x86)/CodeBlocks/MinGW/include/GL\glut.h **** #define GLUT_CURSOR_TOP_SIDE		12
 466:C:/Program Files (x86)/CodeBlocks/MinGW/include/GL\glut.h **** #define GLUT_CURSOR_BOTTOM_SIDE		13
 467:C:/Program Files (x86)/CodeBlocks/MinGW/include/GL\glut.h **** #define GLUT_CURSOR_LEFT_SIDE		14
 468:C:/Program Files (x86)/CodeBlocks/MinGW/include/GL\glut.h **** #define GLUT_CURSOR_RIGHT_SIDE		15
 469:C:/Program Files (x86)/CodeBlocks/MinGW/include/GL\glut.h **** #define GLUT_CURSOR_TOP_LEFT_CORNER	16
 470:C:/Program Files (x86)/CodeBlocks/MinGW/include/GL\glut.h **** #define GLUT_CURSOR_TOP_RIGHT_CORNER	17
 471:C:/Program Files (x86)/CodeBlocks/MinGW/include/GL\glut.h **** #define GLUT_CURSOR_BOTTOM_RIGHT_CORNER	18
 472:C:/Program Files (x86)/CodeBlocks/MinGW/include/GL\glut.h **** #define GLUT_CURSOR_BOTTOM_LEFT_CORNER	19
 473:C:/Program Files (x86)/CodeBlocks/MinGW/include/GL\glut.h **** /* Inherit from parent window. */
 474:C:/Program Files (x86)/CodeBlocks/MinGW/include/GL\glut.h **** #define GLUT_CURSOR_INHERIT		100
 475:C:/Program Files (x86)/CodeBlocks/MinGW/include/GL\glut.h **** /* Blank cursor. */
 476:C:/Program Files (x86)/CodeBlocks/MinGW/include/GL\glut.h **** #define GLUT_CURSOR_NONE		101
 477:C:/Program Files (x86)/CodeBlocks/MinGW/include/GL\glut.h **** /* Fullscreen crosshair (if available). */
 478:C:/Program Files (x86)/CodeBlocks/MinGW/include/GL\glut.h **** #define GLUT_CURSOR_FULL_CROSSHAIR	102
 479:C:/Program Files (x86)/CodeBlocks/MinGW/include/GL\glut.h **** #endif
 480:C:/Program Files (x86)/CodeBlocks/MinGW/include/GL\glut.h **** 
 481:C:/Program Files (x86)/CodeBlocks/MinGW/include/GL\glut.h **** /* GLUT initialization sub-API. */
 482:C:/Program Files (x86)/CodeBlocks/MinGW/include/GL\glut.h **** GLUTAPI void APIENTRY glutInit(int *argcp, char **argv);
 483:C:/Program Files (x86)/CodeBlocks/MinGW/include/GL\glut.h **** #if defined(_WIN32) && !defined(GLUT_DISABLE_ATEXIT_HACK)
 484:C:/Program Files (x86)/CodeBlocks/MinGW/include/GL\glut.h **** GLUTAPI void APIENTRY __glutInitWithExit(int *argcp, char **argv, void (__cdecl *exitfunc)(int));
 485:C:/Program Files (x86)/CodeBlocks/MinGW/include/GL\glut.h **** #ifndef GLUT_BUILDING_LIB
 486:C:/Program Files (x86)/CodeBlocks/MinGW/include/GL\glut.h **** static void APIENTRY glutInit_ATEXIT_HACK(int *argcp, char **argv) { __glutInitWithExit(argcp, argv
   9              		.loc 1 486 0
  10              		.cfi_startproc
  11 0000 55       		pushl	%ebp
  12              		.cfi_def_cfa_offset 8
  13              		.cfi_offset 5, -8
  14 0001 89E5     		movl	%esp, %ebp
  15              		.cfi_def_cfa_register 5
  16 0003 83EC18   		subl	$24, %esp
  17              		.loc 1 486 0
  18 0006 C7442408 		movl	$_exit, 8(%esp)
  18      00000000 
  19 000e 8B450C   		movl	12(%ebp), %eax
  20 0011 89442404 		movl	%eax, 4(%esp)
  21 0015 8B4508   		movl	8(%ebp), %eax
  22 0018 890424   		movl	%eax, (%esp)
  23 001b E8000000 		call	___glutInitWithExit@12
  23      00
  24 0020 83EC0C   		subl	$12, %esp
  25 0023 90       		nop
  26 0024 C9       		leave
GAS LISTING C:\Users\Marwan\AppData\Local\Temp\ccZ5CEyO.s 			page 10


  27              		.cfi_restore 5
  28              		.cfi_def_cfa 4, 4
  29 0025 C20800   		ret	$8
  30              		.cfi_endproc
  31              	LFE0:
  33              	_glutCreateWindow_ATEXIT_HACK@4:
  34              	LFB1:
 487:C:/Program Files (x86)/CodeBlocks/MinGW/include/GL\glut.h **** #define glutInit glutInit_ATEXIT_HACK
 488:C:/Program Files (x86)/CodeBlocks/MinGW/include/GL\glut.h **** #endif
 489:C:/Program Files (x86)/CodeBlocks/MinGW/include/GL\glut.h **** #endif
 490:C:/Program Files (x86)/CodeBlocks/MinGW/include/GL\glut.h **** GLUTAPI void APIENTRY glutInitDisplayMode(unsigned int mode);
 491:C:/Program Files (x86)/CodeBlocks/MinGW/include/GL\glut.h **** #if (GLUT_API_VERSION >= 4 || GLUT_XLIB_IMPLEMENTATION >= 9)
 492:C:/Program Files (x86)/CodeBlocks/MinGW/include/GL\glut.h **** GLUTAPI void APIENTRY glutInitDisplayString(const char *string);
 493:C:/Program Files (x86)/CodeBlocks/MinGW/include/GL\glut.h **** #endif
 494:C:/Program Files (x86)/CodeBlocks/MinGW/include/GL\glut.h **** GLUTAPI void APIENTRY glutInitWindowPosition(int x, int y);
 495:C:/Program Files (x86)/CodeBlocks/MinGW/include/GL\glut.h **** GLUTAPI void APIENTRY glutInitWindowSize(int width, int height);
 496:C:/Program Files (x86)/CodeBlocks/MinGW/include/GL\glut.h **** GLUTAPI void APIENTRY glutMainLoop(void);
 497:C:/Program Files (x86)/CodeBlocks/MinGW/include/GL\glut.h **** 
 498:C:/Program Files (x86)/CodeBlocks/MinGW/include/GL\glut.h **** /* GLUT window sub-API. */
 499:C:/Program Files (x86)/CodeBlocks/MinGW/include/GL\glut.h **** GLUTAPI int APIENTRY glutCreateWindow(const char *title);
 500:C:/Program Files (x86)/CodeBlocks/MinGW/include/GL\glut.h **** #if defined(_WIN32) && !defined(GLUT_DISABLE_ATEXIT_HACK)
 501:C:/Program Files (x86)/CodeBlocks/MinGW/include/GL\glut.h **** GLUTAPI int APIENTRY __glutCreateWindowWithExit(const char *title, void (__cdecl *exitfunc)(int));
 502:C:/Program Files (x86)/CodeBlocks/MinGW/include/GL\glut.h **** #ifndef GLUT_BUILDING_LIB
 503:C:/Program Files (x86)/CodeBlocks/MinGW/include/GL\glut.h **** static int APIENTRY glutCreateWindow_ATEXIT_HACK(const char *title) { return __glutCreateWindowWith
  35              		.loc 1 503 0
  36              		.cfi_startproc
  37 0028 55       		pushl	%ebp
  38              		.cfi_def_cfa_offset 8
  39              		.cfi_offset 5, -8
  40 0029 89E5     		movl	%esp, %ebp
  41              		.cfi_def_cfa_register 5
  42 002b 83EC18   		subl	$24, %esp
  43              		.loc 1 503 0
  44 002e C7442404 		movl	$_exit, 4(%esp)
  44      00000000 
  45 0036 8B4508   		movl	8(%ebp), %eax
  46 0039 890424   		movl	%eax, (%esp)
  47 003c E8000000 		call	___glutCreateWindowWithExit@8
  47      00
  48 0041 83EC08   		subl	$8, %esp
  49 0044 C9       		leave
  50              		.cfi_restore 5
  51              		.cfi_def_cfa 4, 4
  52 0045 C20400   		ret	$4
  53              		.cfi_endproc
  54              	LFE1:
  56              	_glutCreateMenu_ATEXIT_HACK@4:
  57              	LFB2:
 504:C:/Program Files (x86)/CodeBlocks/MinGW/include/GL\glut.h **** #define glutCreateWindow glutCreateWindow_ATEXIT_HACK
 505:C:/Program Files (x86)/CodeBlocks/MinGW/include/GL\glut.h **** #endif
 506:C:/Program Files (x86)/CodeBlocks/MinGW/include/GL\glut.h **** #endif
 507:C:/Program Files (x86)/CodeBlocks/MinGW/include/GL\glut.h **** GLUTAPI int APIENTRY glutCreateSubWindow(int win, int x, int y, int width, int height);
 508:C:/Program Files (x86)/CodeBlocks/MinGW/include/GL\glut.h **** GLUTAPI void APIENTRY glutDestroyWindow(int win);
 509:C:/Program Files (x86)/CodeBlocks/MinGW/include/GL\glut.h **** GLUTAPI void APIENTRY glutPostRedisplay(void);
 510:C:/Program Files (x86)/CodeBlocks/MinGW/include/GL\glut.h **** #if (GLUT_API_VERSION >= 4 || GLUT_XLIB_IMPLEMENTATION >= 11)
 511:C:/Program Files (x86)/CodeBlocks/MinGW/include/GL\glut.h **** GLUTAPI void APIENTRY glutPostWindowRedisplay(int win);
 512:C:/Program Files (x86)/CodeBlocks/MinGW/include/GL\glut.h **** #endif
GAS LISTING C:\Users\Marwan\AppData\Local\Temp\ccZ5CEyO.s 			page 11


 513:C:/Program Files (x86)/CodeBlocks/MinGW/include/GL\glut.h **** GLUTAPI void APIENTRY glutSwapBuffers(void);
 514:C:/Program Files (x86)/CodeBlocks/MinGW/include/GL\glut.h **** GLUTAPI int APIENTRY glutGetWindow(void);
 515:C:/Program Files (x86)/CodeBlocks/MinGW/include/GL\glut.h **** GLUTAPI void APIENTRY glutSetWindow(int win);
 516:C:/Program Files (x86)/CodeBlocks/MinGW/include/GL\glut.h **** GLUTAPI void APIENTRY glutSetWindowTitle(const char *title);
 517:C:/Program Files (x86)/CodeBlocks/MinGW/include/GL\glut.h **** GLUTAPI void APIENTRY glutSetIconTitle(const char *title);
 518:C:/Program Files (x86)/CodeBlocks/MinGW/include/GL\glut.h **** GLUTAPI void APIENTRY glutPositionWindow(int x, int y);
 519:C:/Program Files (x86)/CodeBlocks/MinGW/include/GL\glut.h **** GLUTAPI void APIENTRY glutReshapeWindow(int width, int height);
 520:C:/Program Files (x86)/CodeBlocks/MinGW/include/GL\glut.h **** GLUTAPI void APIENTRY glutPopWindow(void);
 521:C:/Program Files (x86)/CodeBlocks/MinGW/include/GL\glut.h **** GLUTAPI void APIENTRY glutPushWindow(void);
 522:C:/Program Files (x86)/CodeBlocks/MinGW/include/GL\glut.h **** GLUTAPI void APIENTRY glutIconifyWindow(void);
 523:C:/Program Files (x86)/CodeBlocks/MinGW/include/GL\glut.h **** GLUTAPI void APIENTRY glutShowWindow(void);
 524:C:/Program Files (x86)/CodeBlocks/MinGW/include/GL\glut.h **** GLUTAPI void APIENTRY glutHideWindow(void);
 525:C:/Program Files (x86)/CodeBlocks/MinGW/include/GL\glut.h **** #if (GLUT_API_VERSION >= 3)
 526:C:/Program Files (x86)/CodeBlocks/MinGW/include/GL\glut.h **** GLUTAPI void APIENTRY glutFullScreen(void);
 527:C:/Program Files (x86)/CodeBlocks/MinGW/include/GL\glut.h **** GLUTAPI void APIENTRY glutSetCursor(int cursor);
 528:C:/Program Files (x86)/CodeBlocks/MinGW/include/GL\glut.h **** #if (GLUT_API_VERSION >= 4 || GLUT_XLIB_IMPLEMENTATION >= 9)
 529:C:/Program Files (x86)/CodeBlocks/MinGW/include/GL\glut.h **** GLUTAPI void APIENTRY glutWarpPointer(int x, int y);
 530:C:/Program Files (x86)/CodeBlocks/MinGW/include/GL\glut.h **** #endif
 531:C:/Program Files (x86)/CodeBlocks/MinGW/include/GL\glut.h **** 
 532:C:/Program Files (x86)/CodeBlocks/MinGW/include/GL\glut.h **** /* GLUT overlay sub-API. */
 533:C:/Program Files (x86)/CodeBlocks/MinGW/include/GL\glut.h **** GLUTAPI void APIENTRY glutEstablishOverlay(void);
 534:C:/Program Files (x86)/CodeBlocks/MinGW/include/GL\glut.h **** GLUTAPI void APIENTRY glutRemoveOverlay(void);
 535:C:/Program Files (x86)/CodeBlocks/MinGW/include/GL\glut.h **** GLUTAPI void APIENTRY glutUseLayer(GLenum layer);
 536:C:/Program Files (x86)/CodeBlocks/MinGW/include/GL\glut.h **** GLUTAPI void APIENTRY glutPostOverlayRedisplay(void);
 537:C:/Program Files (x86)/CodeBlocks/MinGW/include/GL\glut.h **** #if (GLUT_API_VERSION >= 4 || GLUT_XLIB_IMPLEMENTATION >= 11)
 538:C:/Program Files (x86)/CodeBlocks/MinGW/include/GL\glut.h **** GLUTAPI void APIENTRY glutPostWindowOverlayRedisplay(int win);
 539:C:/Program Files (x86)/CodeBlocks/MinGW/include/GL\glut.h **** #endif
 540:C:/Program Files (x86)/CodeBlocks/MinGW/include/GL\glut.h **** GLUTAPI void APIENTRY glutShowOverlay(void);
 541:C:/Program Files (x86)/CodeBlocks/MinGW/include/GL\glut.h **** GLUTAPI void APIENTRY glutHideOverlay(void);
 542:C:/Program Files (x86)/CodeBlocks/MinGW/include/GL\glut.h **** #endif
 543:C:/Program Files (x86)/CodeBlocks/MinGW/include/GL\glut.h **** 
 544:C:/Program Files (x86)/CodeBlocks/MinGW/include/GL\glut.h **** /* GLUT menu sub-API. */
 545:C:/Program Files (x86)/CodeBlocks/MinGW/include/GL\glut.h **** GLUTAPI int APIENTRY glutCreateMenu(void (GLUTCALLBACK *func)(int));
 546:C:/Program Files (x86)/CodeBlocks/MinGW/include/GL\glut.h **** #if defined(_WIN32) && !defined(GLUT_DISABLE_ATEXIT_HACK)
 547:C:/Program Files (x86)/CodeBlocks/MinGW/include/GL\glut.h **** GLUTAPI int APIENTRY __glutCreateMenuWithExit(void (GLUTCALLBACK *func)(int), void (__cdecl *exitfu
 548:C:/Program Files (x86)/CodeBlocks/MinGW/include/GL\glut.h **** #ifndef GLUT_BUILDING_LIB
 549:C:/Program Files (x86)/CodeBlocks/MinGW/include/GL\glut.h **** static int APIENTRY glutCreateMenu_ATEXIT_HACK(void (GLUTCALLBACK *func)(int)) { return __glutCreat
  58              		.loc 1 549 0
  59              		.cfi_startproc
  60 0048 55       		pushl	%ebp
  61              		.cfi_def_cfa_offset 8
  62              		.cfi_offset 5, -8
  63 0049 89E5     		movl	%esp, %ebp
  64              		.cfi_def_cfa_register 5
  65 004b 83EC18   		subl	$24, %esp
  66              		.loc 1 549 0
  67 004e C7442404 		movl	$_exit, 4(%esp)
  67      00000000 
  68 0056 8B4508   		movl	8(%ebp), %eax
  69 0059 890424   		movl	%eax, (%esp)
  70 005c E8000000 		call	___glutCreateMenuWithExit@8
  70      00
  71 0061 83EC08   		subl	$8, %esp
  72 0064 C9       		leave
  73              		.cfi_restore 5
  74              		.cfi_def_cfa 4, 4
  75 0065 C20400   		ret	$4
GAS LISTING C:\Users\Marwan\AppData\Local\Temp\ccZ5CEyO.s 			page 12


  76              		.cfi_endproc
  77              	LFE2:
  78              		.data
  79              		.align 4
  80              	__ZL6slices:
  81 0000 10000000 		.long	16
  82              		.align 4
  83              	__ZL6stacks:
  84 0004 10000000 		.long	16
  85              	.lcomm __ZL6useFog,4,4
  86              		.globl	_moonx
  87              		.bss
  88              		.align 4
  89              	_moonx:
  90 0000 00000000 		.space 4
  91              		.globl	_moony
  92              		.align 4
  93              	_moony:
  94 0004 00000000 		.space 4
  95              		.globl	_sunx
  96              		.align 4
  97              	_sunx:
  98 0008 00000000 		.space 4
  99              		.globl	_suny
 100              		.align 4
 101              	_suny:
 102 000c 00000000 		.space 4
 103              		.globl	_boatx
 104              		.align 4
 105              	_boatx:
 106 0010 00000000 		.space 4
 107              		.globl	_cloudsx
 108              		.align 4
 109              	_cloudsx:
 110 0014 00000000 		.space 4
 111              		.globl	_COLOR
 112              		.align 4
 113              	_COLOR:
 114 0018 00000000 		.space 4
 115              		.globl	_direction
 116              		.data
 117              		.align 4
 118              	_direction:
 119 0008 01000000 		.long	1
 120              		.globl	_red
 121              		.align 4
 122              	_red:
 123 000c AAF1D23E 		.long	1054011818
 124              		.globl	_green
 125              		.align 4
 126              	_green:
 127 0010 AAF1D23E 		.long	1054011818
 128              		.globl	_blue
 129              		.align 4
 130              	_blue:
 131 0014 AAF1D23E 		.long	1054011818
 132              		.globl	_alpha
GAS LISTING C:\Users\Marwan\AppData\Local\Temp\ccZ5CEyO.s 			page 13


 133              		.bss
 134              		.align 4
 135              	_alpha:
 136 001c 00000000 		.space 4
 137              		.globl	_sunflag
 138              		.data
 139              		.align 4
 140              	_sunflag:
 141 0018 01000000 		.long	1
 142              		.globl	_anglesun
 143              		.bss
 144              		.align 8
 145              	_anglesun:
 146 0020 00000000 		.space 8
 146      00000000 
 147              		.globl	_moonflag
 148              		.data
 149              		.align 4
 150              	_moonflag:
 151 001c 01000000 		.long	1
 152              		.globl	_boatflag
 153              		.align 4
 154              	_boatflag:
 155 0020 01000000 		.long	1
 156              		.globl	_angle
 157              		.bss
 158              		.align 4
 159              	_angle:
 160 0028 00000000 		.space 4
 161              		.globl	_x
 162              		.align 4
 163              	_x:
 164 002c 00000000 		.space 4
 165              		.globl	_cubesize
 166              		.align 8
 167              	_cubesize:
 168 0030 00000000 		.space 8
 168      00000000 
 169              		.globl	_flag
 170              		.data
 171              		.align 4
 172              	_flag:
 173 0024 01000000 		.long	1
 174              		.globl	_rotatee
 175              		.bss
 176              		.align 4
 177              	_rotatee:
 178 0038 00000000 		.space 4
 179              		.globl	_translateX
 180              		.align 4
 181              	_translateX:
 182 003c 00000000 		.space 4
 183              		.globl	_translateY
 184              		.data
 185              		.align 4
 186              	_translateY:
 187 0028 05000000 		.long	5
GAS LISTING C:\Users\Marwan\AppData\Local\Temp\ccZ5CEyO.s 			page 14


 188              		.globl	_translateY2
 189              		.align 4
 190              	_translateY2:
 191 002c FCFFFFFF 		.long	-4
 192              		.globl	_ssize
 193              		.align 8
 194              	_ssize:
 195 0030 00000000 		.long	0
 196 0034 00000040 		.long	1073741824
 197              		.globl	_scale
 198              		.bss
 199              		.align 8
 200              	_scale:
 201 0040 00000000 		.space 8
 201      00000000 
 202              		.text
 203              		.globl	__Z4initv
 205              	__Z4initv:
 206              	LFB9:
 207              		.file 2 "C:/Users/Marwan/OneDrive/Documents/GitHub/3D-graphics/project2/main.cpp"
   1:C:/Users/Marwan/OneDrive/Documents/GitHub/3D-graphics/project2\main.cpp **** //first we include libraries
   2:C:/Users/Marwan/OneDrive/Documents/GitHub/3D-graphics/project2\main.cpp **** #include<GL/gl.h>
   3:C:/Users/Marwan/OneDrive/Documents/GitHub/3D-graphics/project2\main.cpp **** #include<GL/glu.h>
   4:C:/Users/Marwan/OneDrive/Documents/GitHub/3D-graphics/project2\main.cpp **** #include<GL/glut.h>
   5:C:/Users/Marwan/OneDrive/Documents/GitHub/3D-graphics/project2\main.cpp **** #include<stdlib.h>
   6:C:/Users/Marwan/OneDrive/Documents/GitHub/3D-graphics/project2\main.cpp **** #include<windows.h>
   7:C:/Users/Marwan/OneDrive/Documents/GitHub/3D-graphics/project2\main.cpp **** #include<math.h>
   8:C:/Users/Marwan/OneDrive/Documents/GitHub/3D-graphics/project2\main.cpp **** //#include<graphics.h>
   9:C:/Users/Marwan/OneDrive/Documents/GitHub/3D-graphics/project2\main.cpp **** static int slices = 16;
  10:C:/Users/Marwan/OneDrive/Documents/GitHub/3D-graphics/project2\main.cpp **** static int stacks = 16;
  11:C:/Users/Marwan/OneDrive/Documents/GitHub/3D-graphics/project2\main.cpp **** static int useFog = 0;
  12:C:/Users/Marwan/OneDrive/Documents/GitHub/3D-graphics/project2\main.cpp **** float moonx=0,moony=0;
  13:C:/Users/Marwan/OneDrive/Documents/GitHub/3D-graphics/project2\main.cpp **** float sunx=0,suny=0;
  14:C:/Users/Marwan/OneDrive/Documents/GitHub/3D-graphics/project2\main.cpp **** float boatx;
  15:C:/Users/Marwan/OneDrive/Documents/GitHub/3D-graphics/project2\main.cpp **** float cloudsx=0;
  16:C:/Users/Marwan/OneDrive/Documents/GitHub/3D-graphics/project2\main.cpp **** int COLOR=0;
  17:C:/Users/Marwan/OneDrive/Documents/GitHub/3D-graphics/project2\main.cpp **** int direction=1;
  18:C:/Users/Marwan/OneDrive/Documents/GitHub/3D-graphics/project2\main.cpp **** float red=0.412,green=0.412,blue=0.412,alpha;
  19:C:/Users/Marwan/OneDrive/Documents/GitHub/3D-graphics/project2\main.cpp **** //int flag= 1;
  20:C:/Users/Marwan/OneDrive/Documents/GitHub/3D-graphics/project2\main.cpp **** int sunflag = 1;
  21:C:/Users/Marwan/OneDrive/Documents/GitHub/3D-graphics/project2\main.cpp **** double anglesun;
  22:C:/Users/Marwan/OneDrive/Documents/GitHub/3D-graphics/project2\main.cpp **** int moonflag=1;
  23:C:/Users/Marwan/OneDrive/Documents/GitHub/3D-graphics/project2\main.cpp **** int boatflag =1;
  24:C:/Users/Marwan/OneDrive/Documents/GitHub/3D-graphics/project2\main.cpp **** float angle=0;
  25:C:/Users/Marwan/OneDrive/Documents/GitHub/3D-graphics/project2\main.cpp **** void tree(float i,float j);
  26:C:/Users/Marwan/OneDrive/Documents/GitHub/3D-graphics/project2\main.cpp **** void mount(float x,float y,float z , float w);
  27:C:/Users/Marwan/OneDrive/Documents/GitHub/3D-graphics/project2\main.cpp **** void boat(float boatx);
  28:C:/Users/Marwan/OneDrive/Documents/GitHub/3D-graphics/project2\main.cpp **** void sun(float sunx,float suny);
  29:C:/Users/Marwan/OneDrive/Documents/GitHub/3D-graphics/project2\main.cpp **** void moon(float moonx, float moony);
  30:C:/Users/Marwan/OneDrive/Documents/GitHub/3D-graphics/project2\main.cpp **** float x=0;
  31:C:/Users/Marwan/OneDrive/Documents/GitHub/3D-graphics/project2\main.cpp **** double cubesize = 0;
  32:C:/Users/Marwan/OneDrive/Documents/GitHub/3D-graphics/project2\main.cpp **** int flag= 1;
  33:C:/Users/Marwan/OneDrive/Documents/GitHub/3D-graphics/project2\main.cpp **** int rotatee=0;
  34:C:/Users/Marwan/OneDrive/Documents/GitHub/3D-graphics/project2\main.cpp **** int translateX=0,translateY=5;
  35:C:/Users/Marwan/OneDrive/Documents/GitHub/3D-graphics/project2\main.cpp **** int translateY2=-4;
  36:C:/Users/Marwan/OneDrive/Documents/GitHub/3D-graphics/project2\main.cpp **** void display();
  37:C:/Users/Marwan/OneDrive/Documents/GitHub/3D-graphics/project2\main.cpp **** double ssize = 2;
GAS LISTING C:\Users\Marwan\AppData\Local\Temp\ccZ5CEyO.s 			page 15


  38:C:/Users/Marwan/OneDrive/Documents/GitHub/3D-graphics/project2\main.cpp **** double scale;
  39:C:/Users/Marwan/OneDrive/Documents/GitHub/3D-graphics/project2\main.cpp **** void reshape(int w, int h);
  40:C:/Users/Marwan/OneDrive/Documents/GitHub/3D-graphics/project2\main.cpp **** void texture (void);
  41:C:/Users/Marwan/OneDrive/Documents/GitHub/3D-graphics/project2\main.cpp **** void init(){ glClearColor(0.529, 0.808, 0.922, 0); }
 208              		.loc 2 41 0
 209              		.cfi_startproc
 210 0068 55       		pushl	%ebp
 211              		.cfi_def_cfa_offset 8
 212              		.cfi_offset 5, -8
 213 0069 89E5     		movl	%esp, %ebp
 214              		.cfi_def_cfa_register 5
 215 006b 83EC18   		subl	$24, %esp
 216              		.loc 2 41 0
 217 006e D9EE     		fldz
 218 0070 D95C240C 		fstps	12(%esp)
 219 0074 D9051400 		flds	LC1
 219      0000
 220 007a D95C2408 		fstps	8(%esp)
 221 007e D9051800 		flds	LC2
 221      0000
 222 0084 D95C2404 		fstps	4(%esp)
 223 0088 D9051C00 		flds	LC3
 223      0000
 224 008e D91C24   		fstps	(%esp)
 225 0091 E8000000 		call	_glClearColor@16
 225      00
 226 0096 83EC10   		subl	$16, %esp
 227 0099 90       		nop
 228 009a C9       		leave
 229              		.cfi_restore 5
 230              		.cfi_def_cfa 4, 4
 231 009b C3       		ret
 232              		.cfi_endproc
 233              	LFE9:
 234              		.globl	_xRotated
 235              		.data
 236              		.align 4
 237              	_xRotated:
 238 0038 0000B442 		.long	1119092736
 239              		.globl	_yRotated
 240              		.bss
 241              		.align 4
 242              	_yRotated:
 243 0048 00000000 		.space 4
 244              		.globl	_zRotated
 245              		.align 4
 246              	_zRotated:
 247 004c 00000000 		.space 4
 248              		.globl	_anglePyramid
 249              		.align 4
 250              	_anglePyramid:
 251 0050 00000000 		.space 4
 252              		.globl	_angleCube
 253              		.align 4
 254              	_angleCube:
 255 0054 00000000 		.space 4
 256              		.globl	_refreshMills
GAS LISTING C:\Users\Marwan\AppData\Local\Temp\ccZ5CEyO.s 			page 16


 257              		.data
 258              		.align 4
 259              	_refreshMills:
 260 003c 0F000000 		.long	15
 261              		.text
 262              		.globl	__Z8keyboardhii
 264              	__Z8keyboardhii:
 265              	LFB10:
  42:C:/Users/Marwan/OneDrive/Documents/GitHub/3D-graphics/project2\main.cpp **** void idleFunc();
  43:C:/Users/Marwan/OneDrive/Documents/GitHub/3D-graphics/project2\main.cpp **** float xRotated = 90.0, yRotated = 0.0, zRotated = 0.0;
  44:C:/Users/Marwan/OneDrive/Documents/GitHub/3D-graphics/project2\main.cpp **** void timer(int);
  45:C:/Users/Marwan/OneDrive/Documents/GitHub/3D-graphics/project2\main.cpp **** GLfloat anglePyramid = 0.0f;  // Rotational angle for pyramid
  46:C:/Users/Marwan/OneDrive/Documents/GitHub/3D-graphics/project2\main.cpp **** GLfloat angleCube = 0.0f;     // Rotational angle for cube
  47:C:/Users/Marwan/OneDrive/Documents/GitHub/3D-graphics/project2\main.cpp **** int refreshMills = 15;        // refresh interval in milliseconds
  48:C:/Users/Marwan/OneDrive/Documents/GitHub/3D-graphics/project2\main.cpp **** 
  49:C:/Users/Marwan/OneDrive/Documents/GitHub/3D-graphics/project2\main.cpp **** //void OnMouseClick(int button, int state, int x, int y)
  50:C:/Users/Marwan/OneDrive/Documents/GitHub/3D-graphics/project2\main.cpp **** //{
  51:C:/Users/Marwan/OneDrive/Documents/GitHub/3D-graphics/project2\main.cpp **** //  if (button == GLUT_LEFT_BUTTON && state == GLUT_DOWN)
  52:C:/Users/Marwan/OneDrive/Documents/GitHub/3D-graphics/project2\main.cpp **** //  {
  53:C:/Users/Marwan/OneDrive/Documents/GitHub/3D-graphics/project2\main.cpp **** //     //store the x,y value where the click happened
  54:C:/Users/Marwan/OneDrive/Documents/GitHub/3D-graphics/project2\main.cpp **** //    translateX--;
  55:C:/Users/Marwan/OneDrive/Documents/GitHub/3D-graphics/project2\main.cpp **** //  }
  56:C:/Users/Marwan/OneDrive/Documents/GitHub/3D-graphics/project2\main.cpp **** //}
  57:C:/Users/Marwan/OneDrive/Documents/GitHub/3D-graphics/project2\main.cpp **** 
  58:C:/Users/Marwan/OneDrive/Documents/GitHub/3D-graphics/project2\main.cpp **** void keyboard(unsigned char Key, int x, int y){
 266              		.loc 2 58 0
 267              		.cfi_startproc
 268 009c 55       		pushl	%ebp
 269              		.cfi_def_cfa_offset 8
 270              		.cfi_offset 5, -8
 271 009d 89E5     		movl	%esp, %ebp
 272              		.cfi_def_cfa_register 5
 273 009f 83EC28   		subl	$40, %esp
 274 00a2 8B4508   		movl	8(%ebp), %eax
 275 00a5 8845F4   		movb	%al, -12(%ebp)
  59:C:/Users/Marwan/OneDrive/Documents/GitHub/3D-graphics/project2\main.cpp **** 
  60:C:/Users/Marwan/OneDrive/Documents/GitHub/3D-graphics/project2\main.cpp ****     switch(Key){
 276              		.loc 2 60 0
 277 00a8 0FB645F4 		movzbl	-12(%ebp), %eax
 278 00ac 83F846   		cmpl	$70, %eax
 279 00af 0F84E700 		je	L9
 279      0000
 280 00b5 83F846   		cmpl	$70, %eax
 281 00b8 7F20     		jg	L10
 282 00ba 83F82B   		cmpl	$43, %eax
 283 00bd 0F848200 		je	L11
 283      0000
 284 00c3 83F82D   		cmpl	$45, %eax
 285 00c6 0F849800 		je	L12
 285      0000
 286 00cc 83F81B   		cmpl	$27, %eax
 287 00cf 0F843201 		je	L13
 287      0000
  61:C:/Users/Marwan/OneDrive/Documents/GitHub/3D-graphics/project2\main.cpp ****     case 'w' :if(translateY2<-3)
  62:C:/Users/Marwan/OneDrive/Documents/GitHub/3D-graphics/project2\main.cpp ****                     translateY2++;
  63:C:/Users/Marwan/OneDrive/Documents/GitHub/3D-graphics/project2\main.cpp **** 
  64:C:/Users/Marwan/OneDrive/Documents/GitHub/3D-graphics/project2\main.cpp **** 
GAS LISTING C:\Users\Marwan\AppData\Local\Temp\ccZ5CEyO.s 			page 17


  65:C:/Users/Marwan/OneDrive/Documents/GitHub/3D-graphics/project2\main.cpp ****         break;
  66:C:/Users/Marwan/OneDrive/Documents/GitHub/3D-graphics/project2\main.cpp **** 
  67:C:/Users/Marwan/OneDrive/Documents/GitHub/3D-graphics/project2\main.cpp ****         case 's' :if(translateY2>-4)
  68:C:/Users/Marwan/OneDrive/Documents/GitHub/3D-graphics/project2\main.cpp ****                        translateY2--;
  69:C:/Users/Marwan/OneDrive/Documents/GitHub/3D-graphics/project2\main.cpp **** 
  70:C:/Users/Marwan/OneDrive/Documents/GitHub/3D-graphics/project2\main.cpp **** 
  71:C:/Users/Marwan/OneDrive/Documents/GitHub/3D-graphics/project2\main.cpp ****         break;
  72:C:/Users/Marwan/OneDrive/Documents/GitHub/3D-graphics/project2\main.cpp ****  case '+':
  73:C:/Users/Marwan/OneDrive/Documents/GitHub/3D-graphics/project2\main.cpp ****             slices++;
  74:C:/Users/Marwan/OneDrive/Documents/GitHub/3D-graphics/project2\main.cpp ****             stacks++;
  75:C:/Users/Marwan/OneDrive/Documents/GitHub/3D-graphics/project2\main.cpp ****             break;
  76:C:/Users/Marwan/OneDrive/Documents/GitHub/3D-graphics/project2\main.cpp **** 
  77:C:/Users/Marwan/OneDrive/Documents/GitHub/3D-graphics/project2\main.cpp ****         case '-':
  78:C:/Users/Marwan/OneDrive/Documents/GitHub/3D-graphics/project2\main.cpp ****             if (slices>3 && stacks>3)
  79:C:/Users/Marwan/OneDrive/Documents/GitHub/3D-graphics/project2\main.cpp ****             {
  80:C:/Users/Marwan/OneDrive/Documents/GitHub/3D-graphics/project2\main.cpp ****                 slices--;
  81:C:/Users/Marwan/OneDrive/Documents/GitHub/3D-graphics/project2\main.cpp ****                 stacks--;
  82:C:/Users/Marwan/OneDrive/Documents/GitHub/3D-graphics/project2\main.cpp ****             }
  83:C:/Users/Marwan/OneDrive/Documents/GitHub/3D-graphics/project2\main.cpp ****             break;
  84:C:/Users/Marwan/OneDrive/Documents/GitHub/3D-graphics/project2\main.cpp **** 
  85:C:/Users/Marwan/OneDrive/Documents/GitHub/3D-graphics/project2\main.cpp ****         case 'F' : glutFullScreen();
  86:C:/Users/Marwan/OneDrive/Documents/GitHub/3D-graphics/project2\main.cpp ****         break;
  87:C:/Users/Marwan/OneDrive/Documents/GitHub/3D-graphics/project2\main.cpp **** 
  88:C:/Users/Marwan/OneDrive/Documents/GitHub/3D-graphics/project2\main.cpp ****         case 'f' : {
  89:C:/Users/Marwan/OneDrive/Documents/GitHub/3D-graphics/project2\main.cpp ****             useFog = !useFog;
  90:C:/Users/Marwan/OneDrive/Documents/GitHub/3D-graphics/project2\main.cpp ****             useFog ? glEnable(GL_FOG) : glDisable(GL_FOG);
  91:C:/Users/Marwan/OneDrive/Documents/GitHub/3D-graphics/project2\main.cpp ****             glutPostRedisplay();
  92:C:/Users/Marwan/OneDrive/Documents/GitHub/3D-graphics/project2\main.cpp ****             }
  93:C:/Users/Marwan/OneDrive/Documents/GitHub/3D-graphics/project2\main.cpp ****         break;
  94:C:/Users/Marwan/OneDrive/Documents/GitHub/3D-graphics/project2\main.cpp **** 
  95:C:/Users/Marwan/OneDrive/Documents/GitHub/3D-graphics/project2\main.cpp ****         case 'r' :
  96:C:/Users/Marwan/OneDrive/Documents/GitHub/3D-graphics/project2\main.cpp ****                     if(rotatee==1)
  97:C:/Users/Marwan/OneDrive/Documents/GitHub/3D-graphics/project2\main.cpp ****                     rotatee=0;
  98:C:/Users/Marwan/OneDrive/Documents/GitHub/3D-graphics/project2\main.cpp ****                     else
  99:C:/Users/Marwan/OneDrive/Documents/GitHub/3D-graphics/project2\main.cpp ****                         rotatee=1;
 100:C:/Users/Marwan/OneDrive/Documents/GitHub/3D-graphics/project2\main.cpp ****         break;
 101:C:/Users/Marwan/OneDrive/Documents/GitHub/3D-graphics/project2\main.cpp **** 
 102:C:/Users/Marwan/OneDrive/Documents/GitHub/3D-graphics/project2\main.cpp ****         case 27 : exit(0);
 103:C:/Users/Marwan/OneDrive/Documents/GitHub/3D-graphics/project2\main.cpp ****         break;
 104:C:/Users/Marwan/OneDrive/Documents/GitHub/3D-graphics/project2\main.cpp ****     }
 105:C:/Users/Marwan/OneDrive/Documents/GitHub/3D-graphics/project2\main.cpp **** }
 288              		.loc 2 105 0
 289 00d5 E9400100 		jmp	L29
 289      00
 290              	L10:
  60:C:/Users/Marwan/OneDrive/Documents/GitHub/3D-graphics/project2\main.cpp ****     case 'w' :if(translateY2<-3)
 291              		.loc 2 60 0
 292 00da 83F872   		cmpl	$114, %eax
 293 00dd 0F840201 		je	L14
 293      0000
 294 00e3 83F872   		cmpl	$114, %eax
 295 00e6 7F0E     		jg	L15
 296 00e8 83F866   		cmpl	$102, %eax
 297 00eb 0F84B200 		je	L16
 297      0000
 298              		.loc 2 105 0
 299 00f1 E9240100 		jmp	L29
GAS LISTING C:\Users\Marwan\AppData\Local\Temp\ccZ5CEyO.s 			page 18


 299      00
 300              	L15:
  60:C:/Users/Marwan/OneDrive/Documents/GitHub/3D-graphics/project2\main.cpp ****     case 'w' :if(translateY2<-3)
 301              		.loc 2 60 0
 302 00f6 83F873   		cmpl	$115, %eax
 303 00f9 742A     		je	L17
 304 00fb 83F877   		cmpl	$119, %eax
 305 00fe 7405     		je	L18
 306              		.loc 2 105 0
 307 0100 E9150100 		jmp	L29
 307      00
 308              	L18:
  61:C:/Users/Marwan/OneDrive/Documents/GitHub/3D-graphics/project2\main.cpp ****     case 'w' :if(translateY2<-3)
 309              		.loc 2 61 0
 310 0105 A12C0000 		movl	_translateY2, %eax
 310      00
 311 010a 83F8FD   		cmpl	$-3, %eax
 312 010d 0F8D0001 		jge	L26
 312      0000
  62:C:/Users/Marwan/OneDrive/Documents/GitHub/3D-graphics/project2\main.cpp **** 
 313              		.loc 2 62 0
 314 0113 A12C0000 		movl	_translateY2, %eax
 314      00
 315 0118 83C001   		addl	$1, %eax
 316 011b A32C0000 		movl	%eax, _translateY2
 316      00
  65:C:/Users/Marwan/OneDrive/Documents/GitHub/3D-graphics/project2\main.cpp **** 
 317              		.loc 2 65 0
 318 0120 E9EE0000 		jmp	L26
 318      00
 319              	L17:
  67:C:/Users/Marwan/OneDrive/Documents/GitHub/3D-graphics/project2\main.cpp ****                        translateY2--;
 320              		.loc 2 67 0
 321 0125 A12C0000 		movl	_translateY2, %eax
 321      00
 322 012a 83F8FD   		cmpl	$-3, %eax
 323 012d 0F8CE300 		jl	L27
 323      0000
  68:C:/Users/Marwan/OneDrive/Documents/GitHub/3D-graphics/project2\main.cpp **** 
 324              		.loc 2 68 0
 325 0133 A12C0000 		movl	_translateY2, %eax
 325      00
 326 0138 83E801   		subl	$1, %eax
 327 013b A32C0000 		movl	%eax, _translateY2
 327      00
  71:C:/Users/Marwan/OneDrive/Documents/GitHub/3D-graphics/project2\main.cpp ****  case '+':
 328              		.loc 2 71 0
 329 0140 E9D10000 		jmp	L27
 329      00
 330              	L11:
  73:C:/Users/Marwan/OneDrive/Documents/GitHub/3D-graphics/project2\main.cpp ****             stacks++;
 331              		.loc 2 73 0
 332 0145 A1000000 		movl	__ZL6slices, %eax
 332      00
 333 014a 83C001   		addl	$1, %eax
 334 014d A3000000 		movl	%eax, __ZL6slices
 334      00
GAS LISTING C:\Users\Marwan\AppData\Local\Temp\ccZ5CEyO.s 			page 19


  74:C:/Users/Marwan/OneDrive/Documents/GitHub/3D-graphics/project2\main.cpp ****             break;
 335              		.loc 2 74 0
 336 0152 A1040000 		movl	__ZL6stacks, %eax
 336      00
 337 0157 83C001   		addl	$1, %eax
 338 015a A3040000 		movl	%eax, __ZL6stacks
 338      00
  75:C:/Users/Marwan/OneDrive/Documents/GitHub/3D-graphics/project2\main.cpp **** 
 339              		.loc 2 75 0
 340 015f E9B60000 		jmp	L8
 340      00
 341              	L12:
  78:C:/Users/Marwan/OneDrive/Documents/GitHub/3D-graphics/project2\main.cpp ****             {
 342              		.loc 2 78 0
 343 0164 A1000000 		movl	__ZL6slices, %eax
 343      00
 344 0169 83F803   		cmpl	$3, %eax
 345 016c 0F8EA700 		jle	L28
 345      0000
  78:C:/Users/Marwan/OneDrive/Documents/GitHub/3D-graphics/project2\main.cpp ****             {
 346              		.loc 2 78 0 is_stmt 0 discriminator 1
 347 0172 A1040000 		movl	__ZL6stacks, %eax
 347      00
 348 0177 83F803   		cmpl	$3, %eax
 349 017a 0F8E9900 		jle	L28
 349      0000
  80:C:/Users/Marwan/OneDrive/Documents/GitHub/3D-graphics/project2\main.cpp ****                 stacks--;
 350              		.loc 2 80 0 is_stmt 1
 351 0180 A1000000 		movl	__ZL6slices, %eax
 351      00
 352 0185 83E801   		subl	$1, %eax
 353 0188 A3000000 		movl	%eax, __ZL6slices
 353      00
  81:C:/Users/Marwan/OneDrive/Documents/GitHub/3D-graphics/project2\main.cpp ****             }
 354              		.loc 2 81 0
 355 018d A1040000 		movl	__ZL6stacks, %eax
 355      00
 356 0192 83E801   		subl	$1, %eax
 357 0195 A3040000 		movl	%eax, __ZL6stacks
 357      00
  83:C:/Users/Marwan/OneDrive/Documents/GitHub/3D-graphics/project2\main.cpp **** 
 358              		.loc 2 83 0
 359 019a EB7D     		jmp	L28
 360              	L9:
  85:C:/Users/Marwan/OneDrive/Documents/GitHub/3D-graphics/project2\main.cpp ****         break;
 361              		.loc 2 85 0
 362 019c E8000000 		call	_glutFullScreen@0
 362      00
  86:C:/Users/Marwan/OneDrive/Documents/GitHub/3D-graphics/project2\main.cpp **** 
 363              		.loc 2 86 0
 364 01a1 EB77     		jmp	L8
 365              	L16:
  89:C:/Users/Marwan/OneDrive/Documents/GitHub/3D-graphics/project2\main.cpp ****             useFog ? glEnable(GL_FOG) : glDisable(GL_FOG);
 366              		.loc 2 89 0
 367 01a3 A1580000 		movl	__ZL6useFog, %eax
 367      00
 368 01a8 85C0     		testl	%eax, %eax
GAS LISTING C:\Users\Marwan\AppData\Local\Temp\ccZ5CEyO.s 			page 20


 369 01aa 0F94C0   		sete	%al
 370 01ad 0FB6C0   		movzbl	%al, %eax
 371 01b0 A3580000 		movl	%eax, __ZL6useFog
 371      00
  90:C:/Users/Marwan/OneDrive/Documents/GitHub/3D-graphics/project2\main.cpp ****             glutPostRedisplay();
 372              		.loc 2 90 0
 373 01b5 A1580000 		movl	__ZL6useFog, %eax
 373      00
 374 01ba 85C0     		testl	%eax, %eax
 375 01bc 7411     		je	L22
  90:C:/Users/Marwan/OneDrive/Documents/GitHub/3D-graphics/project2\main.cpp ****             glutPostRedisplay();
 376              		.loc 2 90 0 is_stmt 0 discriminator 1
 377 01be C7042460 		movl	$2912, (%esp)
 377      0B0000
 378 01c5 E8000000 		call	_glEnable@4
 378      00
 379 01ca 83EC04   		subl	$4, %esp
 380 01cd EB0F     		jmp	L23
 381              	L22:
  90:C:/Users/Marwan/OneDrive/Documents/GitHub/3D-graphics/project2\main.cpp ****             glutPostRedisplay();
 382              		.loc 2 90 0 discriminator 2
 383 01cf C7042460 		movl	$2912, (%esp)
 383      0B0000
 384 01d6 E8000000 		call	_glDisable@4
 384      00
 385 01db 83EC04   		subl	$4, %esp
 386              	L23:
  91:C:/Users/Marwan/OneDrive/Documents/GitHub/3D-graphics/project2\main.cpp ****             }
 387              		.loc 2 91 0 is_stmt 1
 388 01de E8000000 		call	_glutPostRedisplay@0
 388      00
  93:C:/Users/Marwan/OneDrive/Documents/GitHub/3D-graphics/project2\main.cpp **** 
 389              		.loc 2 93 0
 390 01e3 EB35     		jmp	L8
 391              	L14:
  96:C:/Users/Marwan/OneDrive/Documents/GitHub/3D-graphics/project2\main.cpp ****                     rotatee=0;
 392              		.loc 2 96 0
 393 01e5 A1380000 		movl	_rotatee, %eax
 393      00
 394 01ea 83F801   		cmpl	$1, %eax
 395 01ed 750C     		jne	L24
  97:C:/Users/Marwan/OneDrive/Documents/GitHub/3D-graphics/project2\main.cpp ****                     else
 396              		.loc 2 97 0
 397 01ef C7053800 		movl	$0, _rotatee
 397      00000000 
 397      0000
 100:C:/Users/Marwan/OneDrive/Documents/GitHub/3D-graphics/project2\main.cpp **** 
 398              		.loc 2 100 0
 399 01f9 EB1F     		jmp	L8
 400              	L24:
  99:C:/Users/Marwan/OneDrive/Documents/GitHub/3D-graphics/project2\main.cpp ****         break;
 401              		.loc 2 99 0
 402 01fb C7053800 		movl	$1, _rotatee
 402      00000100 
 402      0000
 100:C:/Users/Marwan/OneDrive/Documents/GitHub/3D-graphics/project2\main.cpp **** 
 403              		.loc 2 100 0
GAS LISTING C:\Users\Marwan\AppData\Local\Temp\ccZ5CEyO.s 			page 21


 404 0205 EB13     		jmp	L8
 405              	L13:
 102:C:/Users/Marwan/OneDrive/Documents/GitHub/3D-graphics/project2\main.cpp ****         break;
 406              		.loc 2 102 0
 407 0207 C7042400 		movl	$0, (%esp)
 407      000000
 408 020e E8000000 		call	_exit
 408      00
 409              	L26:
  65:C:/Users/Marwan/OneDrive/Documents/GitHub/3D-graphics/project2\main.cpp **** 
 410              		.loc 2 65 0
 411 0213 90       		nop
 412 0214 EB04     		jmp	L29
 413              	L27:
  71:C:/Users/Marwan/OneDrive/Documents/GitHub/3D-graphics/project2\main.cpp ****  case '+':
 414              		.loc 2 71 0
 415 0216 90       		nop
 416 0217 EB01     		jmp	L29
 417              	L28:
  83:C:/Users/Marwan/OneDrive/Documents/GitHub/3D-graphics/project2\main.cpp **** 
 418              		.loc 2 83 0
 419 0219 90       		nop
 420              	L8:
 421              	L29:
 422              		.loc 2 105 0
 423 021a 90       		nop
 424 021b C9       		leave
 425              		.cfi_restore 5
 426              		.cfi_def_cfa 4, 4
 427 021c C3       		ret
 428              		.cfi_endproc
 429              	LFE10:
 430              		.globl	__Z8triangleff
 432              	__Z8triangleff:
 433              	LFB11:
 106:C:/Users/Marwan/OneDrive/Documents/GitHub/3D-graphics/project2\main.cpp **** void triangle(float x, float y){
 434              		.loc 2 106 0
 435              		.cfi_startproc
 436 021d 55       		pushl	%ebp
 437              		.cfi_def_cfa_offset 8
 438              		.cfi_offset 5, -8
 439 021e 89E5     		movl	%esp, %ebp
 440              		.cfi_def_cfa_register 5
 441 0220 83EC18   		subl	$24, %esp
 107:C:/Users/Marwan/OneDrive/Documents/GitHub/3D-graphics/project2\main.cpp ****     glLoadIdentity();                  // Reset the model-view matrix
 442              		.loc 2 107 0
 443 0223 E8000000 		call	_glLoadIdentity@0
 443      00
 108:C:/Users/Marwan/OneDrive/Documents/GitHub/3D-graphics/project2\main.cpp ****     glTranslatef(x, y, -20.0f);  // Move left and into the screen
 444              		.loc 2 108 0
 445 0228 D9052000 		flds	LC5
 445      0000
 446 022e D95C2408 		fstps	8(%esp)
 447 0232 D9450C   		flds	12(%ebp)
 448 0235 D95C2404 		fstps	4(%esp)
 449 0239 D94508   		flds	8(%ebp)
 450 023c D91C24   		fstps	(%esp)
GAS LISTING C:\Users\Marwan\AppData\Local\Temp\ccZ5CEyO.s 			page 22


 451 023f E8000000 		call	_glTranslatef@12
 451      00
 452 0244 83EC0C   		subl	$12, %esp
 109:C:/Users/Marwan/OneDrive/Documents/GitHub/3D-graphics/project2\main.cpp ****     glRotatef(anglePyramid, 0.0f, 1.0f, 0.0f);  // Rotate about the (1,1,0)-axis
 453              		.loc 2 109 0
 454 0247 D9055000 		flds	_anglePyramid
 454      0000
 455 024d D9EE     		fldz
 456 024f D95C240C 		fstps	12(%esp)
 457 0253 D9E8     		fld1
 458 0255 D95C2408 		fstps	8(%esp)
 459 0259 D9EE     		fldz
 460 025b D95C2404 		fstps	4(%esp)
 461 025f D91C24   		fstps	(%esp)
 462 0262 E8000000 		call	_glRotatef@16
 462      00
 463 0267 83EC10   		subl	$16, %esp
 110:C:/Users/Marwan/OneDrive/Documents/GitHub/3D-graphics/project2\main.cpp ****     glBegin(GL_TRIANGLES);           // Begin drawing the pyramid with 4 triangles
 464              		.loc 2 110 0
 465 026a C7042404 		movl	$4, (%esp)
 465      000000
 466 0271 E8000000 		call	_glBegin@4
 466      00
 467 0276 83EC04   		subl	$4, %esp
 111:C:/Users/Marwan/OneDrive/Documents/GitHub/3D-graphics/project2\main.cpp ****       // Front
 112:C:/Users/Marwan/OneDrive/Documents/GitHub/3D-graphics/project2\main.cpp ****       glColor3f(1.0f, 0.0f, 0.0f);     // Red
 468              		.loc 2 112 0
 469 0279 D9EE     		fldz
 470 027b D95C2408 		fstps	8(%esp)
 471 027f D9EE     		fldz
 472 0281 D95C2404 		fstps	4(%esp)
 473 0285 D9E8     		fld1
 474 0287 D91C24   		fstps	(%esp)
 475 028a E8000000 		call	_glColor3f@12
 475      00
 476 028f 83EC0C   		subl	$12, %esp
 113:C:/Users/Marwan/OneDrive/Documents/GitHub/3D-graphics/project2\main.cpp ****       glVertex3f( 0.0f, 1.0f, 0.0f);
 477              		.loc 2 113 0
 478 0292 D9EE     		fldz
 479 0294 D95C2408 		fstps	8(%esp)
 480 0298 D9E8     		fld1
 481 029a D95C2404 		fstps	4(%esp)
 482 029e D9EE     		fldz
 483 02a0 D91C24   		fstps	(%esp)
 484 02a3 E8000000 		call	_glVertex3f@12
 484      00
 485 02a8 83EC0C   		subl	$12, %esp
 114:C:/Users/Marwan/OneDrive/Documents/GitHub/3D-graphics/project2\main.cpp ****       glColor3f(0.0f, 1.0f, 0.0f);     // Green
 486              		.loc 2 114 0
 487 02ab D9EE     		fldz
 488 02ad D95C2408 		fstps	8(%esp)
 489 02b1 D9E8     		fld1
 490 02b3 D95C2404 		fstps	4(%esp)
 491 02b7 D9EE     		fldz
 492 02b9 D91C24   		fstps	(%esp)
 493 02bc E8000000 		call	_glColor3f@12
 493      00
GAS LISTING C:\Users\Marwan\AppData\Local\Temp\ccZ5CEyO.s 			page 23


 494 02c1 83EC0C   		subl	$12, %esp
 115:C:/Users/Marwan/OneDrive/Documents/GitHub/3D-graphics/project2\main.cpp ****       glVertex3f(-1.0f, -1.0f, 1.0f);
 495              		.loc 2 115 0
 496 02c4 D9E8     		fld1
 497 02c6 D95C2408 		fstps	8(%esp)
 498 02ca D9E8     		fld1
 499 02cc D9E0     		fchs
 500 02ce D95C2404 		fstps	4(%esp)
 501 02d2 D9E8     		fld1
 502 02d4 D9E0     		fchs
 503 02d6 D91C24   		fstps	(%esp)
 504 02d9 E8000000 		call	_glVertex3f@12
 504      00
 505 02de 83EC0C   		subl	$12, %esp
 116:C:/Users/Marwan/OneDrive/Documents/GitHub/3D-graphics/project2\main.cpp ****       glColor3f(0.0f, 0.0f, 1.0f);     // Blue
 506              		.loc 2 116 0
 507 02e1 D9E8     		fld1
 508 02e3 D95C2408 		fstps	8(%esp)
 509 02e7 D9EE     		fldz
 510 02e9 D95C2404 		fstps	4(%esp)
 511 02ed D9EE     		fldz
 512 02ef D91C24   		fstps	(%esp)
 513 02f2 E8000000 		call	_glColor3f@12
 513      00
 514 02f7 83EC0C   		subl	$12, %esp
 117:C:/Users/Marwan/OneDrive/Documents/GitHub/3D-graphics/project2\main.cpp ****       glVertex3f(1.0f, -1.0f, 1.0f);
 515              		.loc 2 117 0
 516 02fa D9E8     		fld1
 517 02fc D95C2408 		fstps	8(%esp)
 518 0300 D9E8     		fld1
 519 0302 D9E0     		fchs
 520 0304 D95C2404 		fstps	4(%esp)
 521 0308 D9E8     		fld1
 522 030a D91C24   		fstps	(%esp)
 523 030d E8000000 		call	_glVertex3f@12
 523      00
 524 0312 83EC0C   		subl	$12, %esp
 118:C:/Users/Marwan/OneDrive/Documents/GitHub/3D-graphics/project2\main.cpp **** 
 119:C:/Users/Marwan/OneDrive/Documents/GitHub/3D-graphics/project2\main.cpp ****       // Right
 120:C:/Users/Marwan/OneDrive/Documents/GitHub/3D-graphics/project2\main.cpp ****       glColor3f(1.0f, 0.0f, 0.0f);     // Red
 525              		.loc 2 120 0
 526 0315 D9EE     		fldz
 527 0317 D95C2408 		fstps	8(%esp)
 528 031b D9EE     		fldz
 529 031d D95C2404 		fstps	4(%esp)
 530 0321 D9E8     		fld1
 531 0323 D91C24   		fstps	(%esp)
 532 0326 E8000000 		call	_glColor3f@12
 532      00
 533 032b 83EC0C   		subl	$12, %esp
 121:C:/Users/Marwan/OneDrive/Documents/GitHub/3D-graphics/project2\main.cpp ****       glVertex3f(0.0f, 1.0f, 0.0f);
 534              		.loc 2 121 0
 535 032e D9EE     		fldz
 536 0330 D95C2408 		fstps	8(%esp)
 537 0334 D9E8     		fld1
 538 0336 D95C2404 		fstps	4(%esp)
 539 033a D9EE     		fldz
GAS LISTING C:\Users\Marwan\AppData\Local\Temp\ccZ5CEyO.s 			page 24


 540 033c D91C24   		fstps	(%esp)
 541 033f E8000000 		call	_glVertex3f@12
 541      00
 542 0344 83EC0C   		subl	$12, %esp
 122:C:/Users/Marwan/OneDrive/Documents/GitHub/3D-graphics/project2\main.cpp ****       glColor3f(0.0f, 0.0f, 1.0f);     // Blue
 543              		.loc 2 122 0
 544 0347 D9E8     		fld1
 545 0349 D95C2408 		fstps	8(%esp)
 546 034d D9EE     		fldz
 547 034f D95C2404 		fstps	4(%esp)
 548 0353 D9EE     		fldz
 549 0355 D91C24   		fstps	(%esp)
 550 0358 E8000000 		call	_glColor3f@12
 550      00
 551 035d 83EC0C   		subl	$12, %esp
 123:C:/Users/Marwan/OneDrive/Documents/GitHub/3D-graphics/project2\main.cpp ****       glVertex3f(1.0f, -1.0f, 1.0f);
 552              		.loc 2 123 0
 553 0360 D9E8     		fld1
 554 0362 D95C2408 		fstps	8(%esp)
 555 0366 D9E8     		fld1
 556 0368 D9E0     		fchs
 557 036a D95C2404 		fstps	4(%esp)
 558 036e D9E8     		fld1
 559 0370 D91C24   		fstps	(%esp)
 560 0373 E8000000 		call	_glVertex3f@12
 560      00
 561 0378 83EC0C   		subl	$12, %esp
 124:C:/Users/Marwan/OneDrive/Documents/GitHub/3D-graphics/project2\main.cpp ****       glColor3f(0.0f, 1.0f, 0.0f);     // Green
 562              		.loc 2 124 0
 563 037b D9EE     		fldz
 564 037d D95C2408 		fstps	8(%esp)
 565 0381 D9E8     		fld1
 566 0383 D95C2404 		fstps	4(%esp)
 567 0387 D9EE     		fldz
 568 0389 D91C24   		fstps	(%esp)
 569 038c E8000000 		call	_glColor3f@12
 569      00
 570 0391 83EC0C   		subl	$12, %esp
 125:C:/Users/Marwan/OneDrive/Documents/GitHub/3D-graphics/project2\main.cpp ****       glVertex3f(1.0f, -1.0f, -1.0f);
 571              		.loc 2 125 0
 572 0394 D9E8     		fld1
 573 0396 D9E0     		fchs
 574 0398 D95C2408 		fstps	8(%esp)
 575 039c D9E8     		fld1
 576 039e D9E0     		fchs
 577 03a0 D95C2404 		fstps	4(%esp)
 578 03a4 D9E8     		fld1
 579 03a6 D91C24   		fstps	(%esp)
 580 03a9 E8000000 		call	_glVertex3f@12
 580      00
 581 03ae 83EC0C   		subl	$12, %esp
 126:C:/Users/Marwan/OneDrive/Documents/GitHub/3D-graphics/project2\main.cpp **** 
 127:C:/Users/Marwan/OneDrive/Documents/GitHub/3D-graphics/project2\main.cpp ****       // Back
 128:C:/Users/Marwan/OneDrive/Documents/GitHub/3D-graphics/project2\main.cpp ****       glColor3f(1.0f, 0.0f, 0.0f);     // Red
 582              		.loc 2 128 0
 583 03b1 D9EE     		fldz
 584 03b3 D95C2408 		fstps	8(%esp)
GAS LISTING C:\Users\Marwan\AppData\Local\Temp\ccZ5CEyO.s 			page 25


 585 03b7 D9EE     		fldz
 586 03b9 D95C2404 		fstps	4(%esp)
 587 03bd D9E8     		fld1
 588 03bf D91C24   		fstps	(%esp)
 589 03c2 E8000000 		call	_glColor3f@12
 589      00
 590 03c7 83EC0C   		subl	$12, %esp
 129:C:/Users/Marwan/OneDrive/Documents/GitHub/3D-graphics/project2\main.cpp ****       glVertex3f(0.0f, 1.0f, 0.0f);
 591              		.loc 2 129 0
 592 03ca D9EE     		fldz
 593 03cc D95C2408 		fstps	8(%esp)
 594 03d0 D9E8     		fld1
 595 03d2 D95C2404 		fstps	4(%esp)
 596 03d6 D9EE     		fldz
 597 03d8 D91C24   		fstps	(%esp)
 598 03db E8000000 		call	_glVertex3f@12
 598      00
 599 03e0 83EC0C   		subl	$12, %esp
 130:C:/Users/Marwan/OneDrive/Documents/GitHub/3D-graphics/project2\main.cpp ****       glColor3f(0.0f, 1.0f, 0.0f);     // Green
 600              		.loc 2 130 0
 601 03e3 D9EE     		fldz
 602 03e5 D95C2408 		fstps	8(%esp)
 603 03e9 D9E8     		fld1
 604 03eb D95C2404 		fstps	4(%esp)
 605 03ef D9EE     		fldz
 606 03f1 D91C24   		fstps	(%esp)
 607 03f4 E8000000 		call	_glColor3f@12
 607      00
 608 03f9 83EC0C   		subl	$12, %esp
 131:C:/Users/Marwan/OneDrive/Documents/GitHub/3D-graphics/project2\main.cpp ****       glVertex3f(1.0f, -1.0f, -1.0f);
 609              		.loc 2 131 0
 610 03fc D9E8     		fld1
 611 03fe D9E0     		fchs
 612 0400 D95C2408 		fstps	8(%esp)
 613 0404 D9E8     		fld1
 614 0406 D9E0     		fchs
 615 0408 D95C2404 		fstps	4(%esp)
 616 040c D9E8     		fld1
 617 040e D91C24   		fstps	(%esp)
 618 0411 E8000000 		call	_glVertex3f@12
 618      00
 619 0416 83EC0C   		subl	$12, %esp
 132:C:/Users/Marwan/OneDrive/Documents/GitHub/3D-graphics/project2\main.cpp ****       glColor3f(0.0f, 0.0f, 1.0f);     // Blue
 620              		.loc 2 132 0
 621 0419 D9E8     		fld1
 622 041b D95C2408 		fstps	8(%esp)
 623 041f D9EE     		fldz
 624 0421 D95C2404 		fstps	4(%esp)
 625 0425 D9EE     		fldz
 626 0427 D91C24   		fstps	(%esp)
 627 042a E8000000 		call	_glColor3f@12
 627      00
 628 042f 83EC0C   		subl	$12, %esp
 133:C:/Users/Marwan/OneDrive/Documents/GitHub/3D-graphics/project2\main.cpp ****       glVertex3f(-1.0f, -1.0f, -1.0f);
 629              		.loc 2 133 0
 630 0432 D9E8     		fld1
 631 0434 D9E0     		fchs
GAS LISTING C:\Users\Marwan\AppData\Local\Temp\ccZ5CEyO.s 			page 26


 632 0436 D95C2408 		fstps	8(%esp)
 633 043a D9E8     		fld1
 634 043c D9E0     		fchs
 635 043e D95C2404 		fstps	4(%esp)
 636 0442 D9E8     		fld1
 637 0444 D9E0     		fchs
 638 0446 D91C24   		fstps	(%esp)
 639 0449 E8000000 		call	_glVertex3f@12
 639      00
 640 044e 83EC0C   		subl	$12, %esp
 134:C:/Users/Marwan/OneDrive/Documents/GitHub/3D-graphics/project2\main.cpp **** 
 135:C:/Users/Marwan/OneDrive/Documents/GitHub/3D-graphics/project2\main.cpp ****       // Left
 136:C:/Users/Marwan/OneDrive/Documents/GitHub/3D-graphics/project2\main.cpp ****       glColor3f(1.0f,0.0f,0.0f);       // Red
 641              		.loc 2 136 0
 642 0451 D9EE     		fldz
 643 0453 D95C2408 		fstps	8(%esp)
 644 0457 D9EE     		fldz
 645 0459 D95C2404 		fstps	4(%esp)
 646 045d D9E8     		fld1
 647 045f D91C24   		fstps	(%esp)
 648 0462 E8000000 		call	_glColor3f@12
 648      00
 649 0467 83EC0C   		subl	$12, %esp
 137:C:/Users/Marwan/OneDrive/Documents/GitHub/3D-graphics/project2\main.cpp ****       glVertex3f( 0.0f, 1.0f, 0.0f);
 650              		.loc 2 137 0
 651 046a D9EE     		fldz
 652 046c D95C2408 		fstps	8(%esp)
 653 0470 D9E8     		fld1
 654 0472 D95C2404 		fstps	4(%esp)
 655 0476 D9EE     		fldz
 656 0478 D91C24   		fstps	(%esp)
 657 047b E8000000 		call	_glVertex3f@12
 657      00
 658 0480 83EC0C   		subl	$12, %esp
 138:C:/Users/Marwan/OneDrive/Documents/GitHub/3D-graphics/project2\main.cpp ****       glColor3f(0.0f,0.0f,1.0f);       // Blue
 659              		.loc 2 138 0
 660 0483 D9E8     		fld1
 661 0485 D95C2408 		fstps	8(%esp)
 662 0489 D9EE     		fldz
 663 048b D95C2404 		fstps	4(%esp)
 664 048f D9EE     		fldz
 665 0491 D91C24   		fstps	(%esp)
 666 0494 E8000000 		call	_glColor3f@12
 666      00
 667 0499 83EC0C   		subl	$12, %esp
 139:C:/Users/Marwan/OneDrive/Documents/GitHub/3D-graphics/project2\main.cpp ****       glVertex3f(-1.0f,-1.0f,-1.0f);
 668              		.loc 2 139 0
 669 049c D9E8     		fld1
 670 049e D9E0     		fchs
 671 04a0 D95C2408 		fstps	8(%esp)
 672 04a4 D9E8     		fld1
 673 04a6 D9E0     		fchs
 674 04a8 D95C2404 		fstps	4(%esp)
 675 04ac D9E8     		fld1
 676 04ae D9E0     		fchs
 677 04b0 D91C24   		fstps	(%esp)
 678 04b3 E8000000 		call	_glVertex3f@12
GAS LISTING C:\Users\Marwan\AppData\Local\Temp\ccZ5CEyO.s 			page 27


 678      00
 679 04b8 83EC0C   		subl	$12, %esp
 140:C:/Users/Marwan/OneDrive/Documents/GitHub/3D-graphics/project2\main.cpp ****       glColor3f(0.0f,1.0f,0.0f);       // Green
 680              		.loc 2 140 0
 681 04bb D9EE     		fldz
 682 04bd D95C2408 		fstps	8(%esp)
 683 04c1 D9E8     		fld1
 684 04c3 D95C2404 		fstps	4(%esp)
 685 04c7 D9EE     		fldz
 686 04c9 D91C24   		fstps	(%esp)
 687 04cc E8000000 		call	_glColor3f@12
 687      00
 688 04d1 83EC0C   		subl	$12, %esp
 141:C:/Users/Marwan/OneDrive/Documents/GitHub/3D-graphics/project2\main.cpp ****       glVertex3f(-1.0f,-1.0f, 1.0f);
 689              		.loc 2 141 0
 690 04d4 D9E8     		fld1
 691 04d6 D95C2408 		fstps	8(%esp)
 692 04da D9E8     		fld1
 693 04dc D9E0     		fchs
 694 04de D95C2404 		fstps	4(%esp)
 695 04e2 D9E8     		fld1
 696 04e4 D9E0     		fchs
 697 04e6 D91C24   		fstps	(%esp)
 698 04e9 E8000000 		call	_glVertex3f@12
 698      00
 699 04ee 83EC0C   		subl	$12, %esp
 142:C:/Users/Marwan/OneDrive/Documents/GitHub/3D-graphics/project2\main.cpp ****         glEnd();   // Done drawing the pyramid
 700              		.loc 2 142 0
 701 04f1 E8000000 		call	_glEnd@0
 701      00
 143:C:/Users/Marwan/OneDrive/Documents/GitHub/3D-graphics/project2\main.cpp **** 
 144:C:/Users/Marwan/OneDrive/Documents/GitHub/3D-graphics/project2\main.cpp **** 
 145:C:/Users/Marwan/OneDrive/Documents/GitHub/3D-graphics/project2\main.cpp ****        }
 702              		.loc 2 145 0
 703 04f6 90       		nop
 704 04f7 C9       		leave
 705              		.cfi_restore 5
 706              		.cfi_def_cfa 4, 4
 707 04f8 C3       		ret
 708              		.cfi_endproc
 709              	LFE11:
 710              		.globl	__Z4cubev
 712              	__Z4cubev:
 713              	LFB12:
 146:C:/Users/Marwan/OneDrive/Documents/GitHub/3D-graphics/project2\main.cpp **** 
 147:C:/Users/Marwan/OneDrive/Documents/GitHub/3D-graphics/project2\main.cpp **** void cube(){
 714              		.loc 2 147 0
 715              		.cfi_startproc
 716 04f9 55       		pushl	%ebp
 717              		.cfi_def_cfa_offset 8
 718              		.cfi_offset 5, -8
 719 04fa 89E5     		movl	%esp, %ebp
 720              		.cfi_def_cfa_register 5
 721 04fc 83EC18   		subl	$24, %esp
 148:C:/Users/Marwan/OneDrive/Documents/GitHub/3D-graphics/project2\main.cpp ****         glLoadIdentity();
 722              		.loc 2 148 0
 723 04ff E8000000 		call	_glLoadIdentity@0
GAS LISTING C:\Users\Marwan\AppData\Local\Temp\ccZ5CEyO.s 			page 28


 723      00
 149:C:/Users/Marwan/OneDrive/Documents/GitHub/3D-graphics/project2\main.cpp ****         glTranslatef(1.5f, 0.0f, -15.0f);
 724              		.loc 2 149 0
 725 0504 D9052400 		flds	LC8
 725      0000
 726 050a D95C2408 		fstps	8(%esp)
 727 050e D9EE     		fldz
 728 0510 D95C2404 		fstps	4(%esp)
 729 0514 D9052800 		flds	LC9
 729      0000
 730 051a D91C24   		fstps	(%esp)
 731 051d E8000000 		call	_glTranslatef@12
 731      00
 732 0522 83EC0C   		subl	$12, %esp
 150:C:/Users/Marwan/OneDrive/Documents/GitHub/3D-graphics/project2\main.cpp ****         glRotatef(angleCube, 1.0f, 1.0f, 1.0f);  // Rotate about (1,1,1)-axis
 733              		.loc 2 150 0
 734 0525 D9055400 		flds	_angleCube
 734      0000
 735 052b D9E8     		fld1
 736 052d D95C240C 		fstps	12(%esp)
 737 0531 D9E8     		fld1
 738 0533 D95C2408 		fstps	8(%esp)
 739 0537 D9E8     		fld1
 740 0539 D95C2404 		fstps	4(%esp)
 741 053d D91C24   		fstps	(%esp)
 742 0540 E8000000 		call	_glRotatef@16
 742      00
 743 0545 83EC10   		subl	$16, %esp
 151:C:/Users/Marwan/OneDrive/Documents/GitHub/3D-graphics/project2\main.cpp **** 
 152:C:/Users/Marwan/OneDrive/Documents/GitHub/3D-graphics/project2\main.cpp ****             glBegin(GL_QUADS);                // Begin drawing the color cube with 6 quads
 744              		.loc 2 152 0
 745 0548 C7042407 		movl	$7, (%esp)
 745      000000
 746 054f E8000000 		call	_glBegin@4
 746      00
 747 0554 83EC04   		subl	$4, %esp
 153:C:/Users/Marwan/OneDrive/Documents/GitHub/3D-graphics/project2\main.cpp ****           // Top face (y = 1.0f)
 154:C:/Users/Marwan/OneDrive/Documents/GitHub/3D-graphics/project2\main.cpp ****           // Define vertices in counter-clockwise (CCW) order with normal pointing out
 155:C:/Users/Marwan/OneDrive/Documents/GitHub/3D-graphics/project2\main.cpp **** 
 156:C:/Users/Marwan/OneDrive/Documents/GitHub/3D-graphics/project2\main.cpp ****           glColor3f(0.0f, 1.0f, 0.0f);     // Green
 748              		.loc 2 156 0
 749 0557 D9EE     		fldz
 750 0559 D95C2408 		fstps	8(%esp)
 751 055d D9E8     		fld1
 752 055f D95C2404 		fstps	4(%esp)
 753 0563 D9EE     		fldz
 754 0565 D91C24   		fstps	(%esp)
 755 0568 E8000000 		call	_glColor3f@12
 755      00
 756 056d 83EC0C   		subl	$12, %esp
 157:C:/Users/Marwan/OneDrive/Documents/GitHub/3D-graphics/project2\main.cpp ****           glVertex3f( 1.0f, 1.0f, -1.0f);
 757              		.loc 2 157 0
 758 0570 D9E8     		fld1
 759 0572 D9E0     		fchs
 760 0574 D95C2408 		fstps	8(%esp)
 761 0578 D9E8     		fld1
 762 057a D95C2404 		fstps	4(%esp)
GAS LISTING C:\Users\Marwan\AppData\Local\Temp\ccZ5CEyO.s 			page 29


 763 057e D9E8     		fld1
 764 0580 D91C24   		fstps	(%esp)
 765 0583 E8000000 		call	_glVertex3f@12
 765      00
 766 0588 83EC0C   		subl	$12, %esp
 158:C:/Users/Marwan/OneDrive/Documents/GitHub/3D-graphics/project2\main.cpp ****           glVertex3f(-1.0f, 1.0f, -1.0f);
 767              		.loc 2 158 0
 768 058b D9E8     		fld1
 769 058d D9E0     		fchs
 770 058f D95C2408 		fstps	8(%esp)
 771 0593 D9E8     		fld1
 772 0595 D95C2404 		fstps	4(%esp)
 773 0599 D9E8     		fld1
 774 059b D9E0     		fchs
 775 059d D91C24   		fstps	(%esp)
 776 05a0 E8000000 		call	_glVertex3f@12
 776      00
 777 05a5 83EC0C   		subl	$12, %esp
 159:C:/Users/Marwan/OneDrive/Documents/GitHub/3D-graphics/project2\main.cpp ****           glVertex3f(-1.0f, 1.0f,  1.0f);
 778              		.loc 2 159 0
 779 05a8 D9E8     		fld1
 780 05aa D95C2408 		fstps	8(%esp)
 781 05ae D9E8     		fld1
 782 05b0 D95C2404 		fstps	4(%esp)
 783 05b4 D9E8     		fld1
 784 05b6 D9E0     		fchs
 785 05b8 D91C24   		fstps	(%esp)
 786 05bb E8000000 		call	_glVertex3f@12
 786      00
 787 05c0 83EC0C   		subl	$12, %esp
 160:C:/Users/Marwan/OneDrive/Documents/GitHub/3D-graphics/project2\main.cpp ****           glVertex3f( 1.0f, 1.0f,  1.0f);
 788              		.loc 2 160 0
 789 05c3 D9E8     		fld1
 790 05c5 D95C2408 		fstps	8(%esp)
 791 05c9 D9E8     		fld1
 792 05cb D95C2404 		fstps	4(%esp)
 793 05cf D9E8     		fld1
 794 05d1 D91C24   		fstps	(%esp)
 795 05d4 E8000000 		call	_glVertex3f@12
 795      00
 796 05d9 83EC0C   		subl	$12, %esp
 161:C:/Users/Marwan/OneDrive/Documents/GitHub/3D-graphics/project2\main.cpp **** 
 162:C:/Users/Marwan/OneDrive/Documents/GitHub/3D-graphics/project2\main.cpp ****           // Bottom face (y = -1.0f)
 163:C:/Users/Marwan/OneDrive/Documents/GitHub/3D-graphics/project2\main.cpp ****           glColor3f(1.0f, 0.5f, 0.0f);     // Orange
 797              		.loc 2 163 0
 798 05dc D9EE     		fldz
 799 05de D95C2408 		fstps	8(%esp)
 800 05e2 D9052C00 		flds	LC10
 800      0000
 801 05e8 D95C2404 		fstps	4(%esp)
 802 05ec D9E8     		fld1
 803 05ee D91C24   		fstps	(%esp)
 804 05f1 E8000000 		call	_glColor3f@12
 804      00
 805 05f6 83EC0C   		subl	$12, %esp
 164:C:/Users/Marwan/OneDrive/Documents/GitHub/3D-graphics/project2\main.cpp ****           glVertex3f( 1.0f, -1.0f,  1.0f);
 806              		.loc 2 164 0
GAS LISTING C:\Users\Marwan\AppData\Local\Temp\ccZ5CEyO.s 			page 30


 807 05f9 D9E8     		fld1
 808 05fb D95C2408 		fstps	8(%esp)
 809 05ff D9E8     		fld1
 810 0601 D9E0     		fchs
 811 0603 D95C2404 		fstps	4(%esp)
 812 0607 D9E8     		fld1
 813 0609 D91C24   		fstps	(%esp)
 814 060c E8000000 		call	_glVertex3f@12
 814      00
 815 0611 83EC0C   		subl	$12, %esp
 165:C:/Users/Marwan/OneDrive/Documents/GitHub/3D-graphics/project2\main.cpp ****           glVertex3f(-1.0f, -1.0f,  1.0f);
 816              		.loc 2 165 0
 817 0614 D9E8     		fld1
 818 0616 D95C2408 		fstps	8(%esp)
 819 061a D9E8     		fld1
 820 061c D9E0     		fchs
 821 061e D95C2404 		fstps	4(%esp)
 822 0622 D9E8     		fld1
 823 0624 D9E0     		fchs
 824 0626 D91C24   		fstps	(%esp)
 825 0629 E8000000 		call	_glVertex3f@12
 825      00
 826 062e 83EC0C   		subl	$12, %esp
 166:C:/Users/Marwan/OneDrive/Documents/GitHub/3D-graphics/project2\main.cpp ****           glVertex3f(-1.0f, -1.0f, -1.0f);
 827              		.loc 2 166 0
 828 0631 D9E8     		fld1
 829 0633 D9E0     		fchs
 830 0635 D95C2408 		fstps	8(%esp)
 831 0639 D9E8     		fld1
 832 063b D9E0     		fchs
 833 063d D95C2404 		fstps	4(%esp)
 834 0641 D9E8     		fld1
 835 0643 D9E0     		fchs
 836 0645 D91C24   		fstps	(%esp)
 837 0648 E8000000 		call	_glVertex3f@12
 837      00
 838 064d 83EC0C   		subl	$12, %esp
 167:C:/Users/Marwan/OneDrive/Documents/GitHub/3D-graphics/project2\main.cpp ****           glVertex3f( 1.0f, -1.0f, -1.0f);
 839              		.loc 2 167 0
 840 0650 D9E8     		fld1
 841 0652 D9E0     		fchs
 842 0654 D95C2408 		fstps	8(%esp)
 843 0658 D9E8     		fld1
 844 065a D9E0     		fchs
 845 065c D95C2404 		fstps	4(%esp)
 846 0660 D9E8     		fld1
 847 0662 D91C24   		fstps	(%esp)
 848 0665 E8000000 		call	_glVertex3f@12
 848      00
 849 066a 83EC0C   		subl	$12, %esp
 168:C:/Users/Marwan/OneDrive/Documents/GitHub/3D-graphics/project2\main.cpp **** 
 169:C:/Users/Marwan/OneDrive/Documents/GitHub/3D-graphics/project2\main.cpp ****           // Front face  (z = 1.0f)
 170:C:/Users/Marwan/OneDrive/Documents/GitHub/3D-graphics/project2\main.cpp ****           glColor3f(1.0f, 0.0f, 0.0f);     // Red
 850              		.loc 2 170 0
 851 066d D9EE     		fldz
 852 066f D95C2408 		fstps	8(%esp)
 853 0673 D9EE     		fldz
GAS LISTING C:\Users\Marwan\AppData\Local\Temp\ccZ5CEyO.s 			page 31


 854 0675 D95C2404 		fstps	4(%esp)
 855 0679 D9E8     		fld1
 856 067b D91C24   		fstps	(%esp)
 857 067e E8000000 		call	_glColor3f@12
 857      00
 858 0683 83EC0C   		subl	$12, %esp
 171:C:/Users/Marwan/OneDrive/Documents/GitHub/3D-graphics/project2\main.cpp ****           glVertex3f( 1.0f,  1.0f, 1.0f);
 859              		.loc 2 171 0
 860 0686 D9E8     		fld1
 861 0688 D95C2408 		fstps	8(%esp)
 862 068c D9E8     		fld1
 863 068e D95C2404 		fstps	4(%esp)
 864 0692 D9E8     		fld1
 865 0694 D91C24   		fstps	(%esp)
 866 0697 E8000000 		call	_glVertex3f@12
 866      00
 867 069c 83EC0C   		subl	$12, %esp
 172:C:/Users/Marwan/OneDrive/Documents/GitHub/3D-graphics/project2\main.cpp ****           glVertex3f(-1.0f,  1.0f, 1.0f);
 868              		.loc 2 172 0
 869 069f D9E8     		fld1
 870 06a1 D95C2408 		fstps	8(%esp)
 871 06a5 D9E8     		fld1
 872 06a7 D95C2404 		fstps	4(%esp)
 873 06ab D9E8     		fld1
 874 06ad D9E0     		fchs
 875 06af D91C24   		fstps	(%esp)
 876 06b2 E8000000 		call	_glVertex3f@12
 876      00
 877 06b7 83EC0C   		subl	$12, %esp
 173:C:/Users/Marwan/OneDrive/Documents/GitHub/3D-graphics/project2\main.cpp ****           glVertex3f(-1.0f, -1.0f, 1.0f);
 878              		.loc 2 173 0
 879 06ba D9E8     		fld1
 880 06bc D95C2408 		fstps	8(%esp)
 881 06c0 D9E8     		fld1
 882 06c2 D9E0     		fchs
 883 06c4 D95C2404 		fstps	4(%esp)
 884 06c8 D9E8     		fld1
 885 06ca D9E0     		fchs
 886 06cc D91C24   		fstps	(%esp)
 887 06cf E8000000 		call	_glVertex3f@12
 887      00
 888 06d4 83EC0C   		subl	$12, %esp
 174:C:/Users/Marwan/OneDrive/Documents/GitHub/3D-graphics/project2\main.cpp ****           glVertex3f( 1.0f, -1.0f, 1.0f);
 889              		.loc 2 174 0
 890 06d7 D9E8     		fld1
 891 06d9 D95C2408 		fstps	8(%esp)
 892 06dd D9E8     		fld1
 893 06df D9E0     		fchs
 894 06e1 D95C2404 		fstps	4(%esp)
 895 06e5 D9E8     		fld1
 896 06e7 D91C24   		fstps	(%esp)
 897 06ea E8000000 		call	_glVertex3f@12
 897      00
 898 06ef 83EC0C   		subl	$12, %esp
 175:C:/Users/Marwan/OneDrive/Documents/GitHub/3D-graphics/project2\main.cpp **** 
 176:C:/Users/Marwan/OneDrive/Documents/GitHub/3D-graphics/project2\main.cpp ****           // Back face (z = -1.0f)
 177:C:/Users/Marwan/OneDrive/Documents/GitHub/3D-graphics/project2\main.cpp ****           glColor3f(1.0f, 1.0f, 0.0f);     // Yellow
GAS LISTING C:\Users\Marwan\AppData\Local\Temp\ccZ5CEyO.s 			page 32


 899              		.loc 2 177 0
 900 06f2 D9EE     		fldz
 901 06f4 D95C2408 		fstps	8(%esp)
 902 06f8 D9E8     		fld1
 903 06fa D95C2404 		fstps	4(%esp)
 904 06fe D9E8     		fld1
 905 0700 D91C24   		fstps	(%esp)
 906 0703 E8000000 		call	_glColor3f@12
 906      00
 907 0708 83EC0C   		subl	$12, %esp
 178:C:/Users/Marwan/OneDrive/Documents/GitHub/3D-graphics/project2\main.cpp ****           glVertex3f( 1.0f, -1.0f, -1.0f);
 908              		.loc 2 178 0
 909 070b D9E8     		fld1
 910 070d D9E0     		fchs
 911 070f D95C2408 		fstps	8(%esp)
 912 0713 D9E8     		fld1
 913 0715 D9E0     		fchs
 914 0717 D95C2404 		fstps	4(%esp)
 915 071b D9E8     		fld1
 916 071d D91C24   		fstps	(%esp)
 917 0720 E8000000 		call	_glVertex3f@12
 917      00
 918 0725 83EC0C   		subl	$12, %esp
 179:C:/Users/Marwan/OneDrive/Documents/GitHub/3D-graphics/project2\main.cpp ****           glVertex3f(-1.0f, -1.0f, -1.0f);
 919              		.loc 2 179 0
 920 0728 D9E8     		fld1
 921 072a D9E0     		fchs
 922 072c D95C2408 		fstps	8(%esp)
 923 0730 D9E8     		fld1
 924 0732 D9E0     		fchs
 925 0734 D95C2404 		fstps	4(%esp)
 926 0738 D9E8     		fld1
 927 073a D9E0     		fchs
 928 073c D91C24   		fstps	(%esp)
 929 073f E8000000 		call	_glVertex3f@12
 929      00
 930 0744 83EC0C   		subl	$12, %esp
 180:C:/Users/Marwan/OneDrive/Documents/GitHub/3D-graphics/project2\main.cpp ****           glVertex3f(-1.0f,  1.0f, -1.0f);
 931              		.loc 2 180 0
 932 0747 D9E8     		fld1
 933 0749 D9E0     		fchs
 934 074b D95C2408 		fstps	8(%esp)
 935 074f D9E8     		fld1
 936 0751 D95C2404 		fstps	4(%esp)
 937 0755 D9E8     		fld1
 938 0757 D9E0     		fchs
 939 0759 D91C24   		fstps	(%esp)
 940 075c E8000000 		call	_glVertex3f@12
 940      00
 941 0761 83EC0C   		subl	$12, %esp
 181:C:/Users/Marwan/OneDrive/Documents/GitHub/3D-graphics/project2\main.cpp ****           glVertex3f( 1.0f,  1.0f, -1.0f);
 942              		.loc 2 181 0
 943 0764 D9E8     		fld1
 944 0766 D9E0     		fchs
 945 0768 D95C2408 		fstps	8(%esp)
 946 076c D9E8     		fld1
 947 076e D95C2404 		fstps	4(%esp)
GAS LISTING C:\Users\Marwan\AppData\Local\Temp\ccZ5CEyO.s 			page 33


 948 0772 D9E8     		fld1
 949 0774 D91C24   		fstps	(%esp)
 950 0777 E8000000 		call	_glVertex3f@12
 950      00
 951 077c 83EC0C   		subl	$12, %esp
 182:C:/Users/Marwan/OneDrive/Documents/GitHub/3D-graphics/project2\main.cpp **** 
 183:C:/Users/Marwan/OneDrive/Documents/GitHub/3D-graphics/project2\main.cpp ****           // Left face (x = -1.0f)
 184:C:/Users/Marwan/OneDrive/Documents/GitHub/3D-graphics/project2\main.cpp ****           glColor3f(0.0f, 0.0f, 1.0f);     // Blue
 952              		.loc 2 184 0
 953 077f D9E8     		fld1
 954 0781 D95C2408 		fstps	8(%esp)
 955 0785 D9EE     		fldz
 956 0787 D95C2404 		fstps	4(%esp)
 957 078b D9EE     		fldz
 958 078d D91C24   		fstps	(%esp)
 959 0790 E8000000 		call	_glColor3f@12
 959      00
 960 0795 83EC0C   		subl	$12, %esp
 185:C:/Users/Marwan/OneDrive/Documents/GitHub/3D-graphics/project2\main.cpp ****           glVertex3f(-1.0f,  1.0f,  1.0f);
 961              		.loc 2 185 0
 962 0798 D9E8     		fld1
 963 079a D95C2408 		fstps	8(%esp)
 964 079e D9E8     		fld1
 965 07a0 D95C2404 		fstps	4(%esp)
 966 07a4 D9E8     		fld1
 967 07a6 D9E0     		fchs
 968 07a8 D91C24   		fstps	(%esp)
 969 07ab E8000000 		call	_glVertex3f@12
 969      00
 970 07b0 83EC0C   		subl	$12, %esp
 186:C:/Users/Marwan/OneDrive/Documents/GitHub/3D-graphics/project2\main.cpp ****           glVertex3f(-1.0f,  1.0f, -1.0f);
 971              		.loc 2 186 0
 972 07b3 D9E8     		fld1
 973 07b5 D9E0     		fchs
 974 07b7 D95C2408 		fstps	8(%esp)
 975 07bb D9E8     		fld1
 976 07bd D95C2404 		fstps	4(%esp)
 977 07c1 D9E8     		fld1
 978 07c3 D9E0     		fchs
 979 07c5 D91C24   		fstps	(%esp)
 980 07c8 E8000000 		call	_glVertex3f@12
 980      00
 981 07cd 83EC0C   		subl	$12, %esp
 187:C:/Users/Marwan/OneDrive/Documents/GitHub/3D-graphics/project2\main.cpp ****           glVertex3f(-1.0f, -1.0f, -1.0f);
 982              		.loc 2 187 0
 983 07d0 D9E8     		fld1
 984 07d2 D9E0     		fchs
 985 07d4 D95C2408 		fstps	8(%esp)
 986 07d8 D9E8     		fld1
 987 07da D9E0     		fchs
 988 07dc D95C2404 		fstps	4(%esp)
 989 07e0 D9E8     		fld1
 990 07e2 D9E0     		fchs
 991 07e4 D91C24   		fstps	(%esp)
 992 07e7 E8000000 		call	_glVertex3f@12
 992      00
 993 07ec 83EC0C   		subl	$12, %esp
GAS LISTING C:\Users\Marwan\AppData\Local\Temp\ccZ5CEyO.s 			page 34


 188:C:/Users/Marwan/OneDrive/Documents/GitHub/3D-graphics/project2\main.cpp ****           glVertex3f(-1.0f, -1.0f,  1.0f);
 994              		.loc 2 188 0
 995 07ef D9E8     		fld1
 996 07f1 D95C2408 		fstps	8(%esp)
 997 07f5 D9E8     		fld1
 998 07f7 D9E0     		fchs
 999 07f9 D95C2404 		fstps	4(%esp)
 1000 07fd D9E8     		fld1
 1001 07ff D9E0     		fchs
 1002 0801 D91C24   		fstps	(%esp)
 1003 0804 E8000000 		call	_glVertex3f@12
 1003      00
 1004 0809 83EC0C   		subl	$12, %esp
 189:C:/Users/Marwan/OneDrive/Documents/GitHub/3D-graphics/project2\main.cpp **** 
 190:C:/Users/Marwan/OneDrive/Documents/GitHub/3D-graphics/project2\main.cpp ****           // Right face (x = 1.0f)
 191:C:/Users/Marwan/OneDrive/Documents/GitHub/3D-graphics/project2\main.cpp ****           glColor3f(1.0f, 0.0f, 1.0f);     // Magenta
 1005              		.loc 2 191 0
 1006 080c D9E8     		fld1
 1007 080e D95C2408 		fstps	8(%esp)
 1008 0812 D9EE     		fldz
 1009 0814 D95C2404 		fstps	4(%esp)
 1010 0818 D9E8     		fld1
 1011 081a D91C24   		fstps	(%esp)
 1012 081d E8000000 		call	_glColor3f@12
 1012      00
 1013 0822 83EC0C   		subl	$12, %esp
 192:C:/Users/Marwan/OneDrive/Documents/GitHub/3D-graphics/project2\main.cpp ****           glVertex3f(1.0f,  1.0f, -1.0f);
 1014              		.loc 2 192 0
 1015 0825 D9E8     		fld1
 1016 0827 D9E0     		fchs
 1017 0829 D95C2408 		fstps	8(%esp)
 1018 082d D9E8     		fld1
 1019 082f D95C2404 		fstps	4(%esp)
 1020 0833 D9E8     		fld1
 1021 0835 D91C24   		fstps	(%esp)
 1022 0838 E8000000 		call	_glVertex3f@12
 1022      00
 1023 083d 83EC0C   		subl	$12, %esp
 193:C:/Users/Marwan/OneDrive/Documents/GitHub/3D-graphics/project2\main.cpp ****           glVertex3f(1.0f,  1.0f,  1.0f);
 1024              		.loc 2 193 0
 1025 0840 D9E8     		fld1
 1026 0842 D95C2408 		fstps	8(%esp)
 1027 0846 D9E8     		fld1
 1028 0848 D95C2404 		fstps	4(%esp)
 1029 084c D9E8     		fld1
 1030 084e D91C24   		fstps	(%esp)
 1031 0851 E8000000 		call	_glVertex3f@12
 1031      00
 1032 0856 83EC0C   		subl	$12, %esp
 194:C:/Users/Marwan/OneDrive/Documents/GitHub/3D-graphics/project2\main.cpp ****           glVertex3f(1.0f, -1.0f,  1.0f);
 1033              		.loc 2 194 0
 1034 0859 D9E8     		fld1
 1035 085b D95C2408 		fstps	8(%esp)
 1036 085f D9E8     		fld1
 1037 0861 D9E0     		fchs
 1038 0863 D95C2404 		fstps	4(%esp)
 1039 0867 D9E8     		fld1
GAS LISTING C:\Users\Marwan\AppData\Local\Temp\ccZ5CEyO.s 			page 35


 1040 0869 D91C24   		fstps	(%esp)
 1041 086c E8000000 		call	_glVertex3f@12
 1041      00
 1042 0871 83EC0C   		subl	$12, %esp
 195:C:/Users/Marwan/OneDrive/Documents/GitHub/3D-graphics/project2\main.cpp ****           glVertex3f(1.0f, -1.0f, -1.0f);
 1043              		.loc 2 195 0
 1044 0874 D9E8     		fld1
 1045 0876 D9E0     		fchs
 1046 0878 D95C2408 		fstps	8(%esp)
 1047 087c D9E8     		fld1
 1048 087e D9E0     		fchs
 1049 0880 D95C2404 		fstps	4(%esp)
 1050 0884 D9E8     		fld1
 1051 0886 D91C24   		fstps	(%esp)
 1052 0889 E8000000 		call	_glVertex3f@12
 1052      00
 1053 088e 83EC0C   		subl	$12, %esp
 196:C:/Users/Marwan/OneDrive/Documents/GitHub/3D-graphics/project2\main.cpp ****             glEnd();  // End of drawing color-cube
 1054              		.loc 2 196 0
 1055 0891 E8000000 		call	_glEnd@0
 1055      00
 197:C:/Users/Marwan/OneDrive/Documents/GitHub/3D-graphics/project2\main.cpp **** 
 198:C:/Users/Marwan/OneDrive/Documents/GitHub/3D-graphics/project2\main.cpp **** }
 1056              		.loc 2 198 0
 1057 0896 90       		nop
 1058 0897 C9       		leave
 1059              		.cfi_restore 5
 1060              		.cfi_def_cfa 4, 4
 1061 0898 C3       		ret
 1062              		.cfi_endproc
 1063              	LFE12:
 1064              		.globl	__Z6spherev
 1066              	__Z6spherev:
 1067              	LFB13:
 199:C:/Users/Marwan/OneDrive/Documents/GitHub/3D-graphics/project2\main.cpp **** void sphere(){
 1068              		.loc 2 199 0
 1069              		.cfi_startproc
 1070 0899 55       		pushl	%ebp
 1071              		.cfi_def_cfa_offset 8
 1072              		.cfi_offset 5, -8
 1073 089a 89E5     		movl	%esp, %ebp
 1074              		.cfi_def_cfa_register 5
 1075 089c 83EC18   		subl	$24, %esp
 200:C:/Users/Marwan/OneDrive/Documents/GitHub/3D-graphics/project2\main.cpp ****             glLoadIdentity();
 1076              		.loc 2 200 0
 1077 089f E8000000 		call	_glLoadIdentity@0
 1077      00
 201:C:/Users/Marwan/OneDrive/Documents/GitHub/3D-graphics/project2\main.cpp ****             glPushMatrix();
 1078              		.loc 2 201 0
 1079 08a4 E8000000 		call	_glPushMatrix@0
 1079      00
 202:C:/Users/Marwan/OneDrive/Documents/GitHub/3D-graphics/project2\main.cpp ****             glTranslatef(-3.0f, -3.0, -20.0f);  // Move left and into the screen
 1080              		.loc 2 202 0
 1081 08a9 D9052000 		flds	LC5
 1081      0000
 1082 08af D95C2408 		fstps	8(%esp)
 1083 08b3 D9053000 		flds	LC11
GAS LISTING C:\Users\Marwan\AppData\Local\Temp\ccZ5CEyO.s 			page 36


 1083      0000
 1084 08b9 D95C2404 		fstps	4(%esp)
 1085 08bd D9053000 		flds	LC11
 1085      0000
 1086 08c3 D91C24   		fstps	(%esp)
 1087 08c6 E8000000 		call	_glTranslatef@12
 1087      00
 1088 08cb 83EC0C   		subl	$12, %esp
 203:C:/Users/Marwan/OneDrive/Documents/GitHub/3D-graphics/project2\main.cpp ****            // glRotatef(0, 0.0f, 1.0f, 0.0f);  // Rotate about the (1,1,0)-axis
 204:C:/Users/Marwan/OneDrive/Documents/GitHub/3D-graphics/project2\main.cpp **** //            glTranslatef(4.0f, 10.0f, -15.0f);
 205:C:/Users/Marwan/OneDrive/Documents/GitHub/3D-graphics/project2\main.cpp **** //            glRotatef(angleCube, 1.0f, 1.0f, 1.0f);
 206:C:/Users/Marwan/OneDrive/Documents/GitHub/3D-graphics/project2\main.cpp ****             glColor3f(1,0,0);
 1089              		.loc 2 206 0
 1090 08ce D9EE     		fldz
 1091 08d0 D95C2408 		fstps	8(%esp)
 1092 08d4 D9EE     		fldz
 1093 08d6 D95C2404 		fstps	4(%esp)
 1094 08da D9E8     		fld1
 1095 08dc D91C24   		fstps	(%esp)
 1096 08df E8000000 		call	_glColor3f@12
 1096      00
 1097 08e4 83EC0C   		subl	$12, %esp
 207:C:/Users/Marwan/OneDrive/Documents/GitHub/3D-graphics/project2\main.cpp ****             glutSolidSphere(2,20,20);
 1098              		.loc 2 207 0
 1099 08e7 C744240C 		movl	$20, 12(%esp)
 1099      14000000 
 1100 08ef C7442408 		movl	$20, 8(%esp)
 1100      14000000 
 1101 08f7 DD053800 		fldl	LC12
 1101      0000
 1102 08fd DD1C24   		fstpl	(%esp)
 1103 0900 E8000000 		call	_glutSolidSphere@16
 1103      00
 1104 0905 83EC10   		subl	$16, %esp
 208:C:/Users/Marwan/OneDrive/Documents/GitHub/3D-graphics/project2\main.cpp ****             glPopMatrix();
 1105              		.loc 2 208 0
 1106 0908 E8000000 		call	_glPopMatrix@0
 1106      00
 209:C:/Users/Marwan/OneDrive/Documents/GitHub/3D-graphics/project2\main.cpp **** }
 1107              		.loc 2 209 0
 1108 090d 90       		nop
 1109 090e C9       		leave
 1110              		.cfi_restore 5
 1111              		.cfi_def_cfa 4, 4
 1112 090f C3       		ret
 1113              		.cfi_endproc
 1114              	LFE13:
 1115              		.globl	__Z4treeiii
 1117              	__Z4treeiii:
 1118              	LFB14:
 210:C:/Users/Marwan/OneDrive/Documents/GitHub/3D-graphics/project2\main.cpp **** void tree(int x,int y,int z){
 1119              		.loc 2 210 0
 1120              		.cfi_startproc
 1121 0910 55       		pushl	%ebp
 1122              		.cfi_def_cfa_offset 8
 1123              		.cfi_offset 5, -8
 1124 0911 89E5     		movl	%esp, %ebp
GAS LISTING C:\Users\Marwan\AppData\Local\Temp\ccZ5CEyO.s 			page 37


 1125              		.cfi_def_cfa_register 5
 1126 0913 83EC38   		subl	$56, %esp
 211:C:/Users/Marwan/OneDrive/Documents/GitHub/3D-graphics/project2\main.cpp **** glLoadIdentity();
 1127              		.loc 2 211 0
 1128 0916 E8000000 		call	_glLoadIdentity@0
 1128      00
 212:C:/Users/Marwan/OneDrive/Documents/GitHub/3D-graphics/project2\main.cpp **** 
 213:C:/Users/Marwan/OneDrive/Documents/GitHub/3D-graphics/project2\main.cpp ****    glPushMatrix();
 1129              		.loc 2 213 0
 1130 091b E8000000 		call	_glPushMatrix@0
 1130      00
 214:C:/Users/Marwan/OneDrive/Documents/GitHub/3D-graphics/project2\main.cpp ****    glColor3f(0.133, 0.545, 0.133);
 1131              		.loc 2 214 0
 1132 0920 D9054000 		flds	LC13
 1132      0000
 1133 0926 D95C2408 		fstps	8(%esp)
 1134 092a D9054400 		flds	LC14
 1134      0000
 1135 0930 D95C2404 		fstps	4(%esp)
 1136 0934 D9054000 		flds	LC13
 1136      0000
 1137 093a D91C24   		fstps	(%esp)
 1138 093d E8000000 		call	_glColor3f@12
 1138      00
 1139 0942 83EC0C   		subl	$12, %esp
 215:C:/Users/Marwan/OneDrive/Documents/GitHub/3D-graphics/project2\main.cpp ****     glTranslated(-4.35+x,-1.7+4.5+y,-20+z);
 1140              		.loc 2 215 0
 1141 0945 8B4510   		movl	16(%ebp), %eax
 1142 0948 83E814   		subl	$20, %eax
 1143 094b 8945F4   		movl	%eax, -12(%ebp)
 1144 094e DB45F4   		fildl	-12(%ebp)
 1145 0951 DB450C   		fildl	12(%ebp)
 1146 0954 DD054800 		fldl	LC15
 1146      0000
 1147 095a DEC1     		faddp	%st, %st(1)
 1148 095c DB4508   		fildl	8(%ebp)
 1149 095f DD055000 		fldl	LC16
 1149      0000
 1150 0965 DEE9     		fsubrp	%st, %st(1)
 1151 0967 D9CA     		fxch	%st(2)
 1152 0969 DD5C2410 		fstpl	16(%esp)
 1153 096d DD5C2408 		fstpl	8(%esp)
 1154 0971 DD1C24   		fstpl	(%esp)
 1155 0974 E8000000 		call	_glTranslated@24
 1155      00
 1156 0979 83EC18   		subl	$24, %esp
 216:C:/Users/Marwan/OneDrive/Documents/GitHub/3D-graphics/project2\main.cpp ****     glRotated(-90,1,0,0);
 1157              		.loc 2 216 0
 1158 097c D9EE     		fldz
 1159 097e DD5C2418 		fstpl	24(%esp)
 1160 0982 D9EE     		fldz
 1161 0984 DD5C2410 		fstpl	16(%esp)
 1162 0988 D9E8     		fld1
 1163 098a DD5C2408 		fstpl	8(%esp)
 1164 098e DD055800 		fldl	LC19
 1164      0000
 1165 0994 DD1C24   		fstpl	(%esp)
GAS LISTING C:\Users\Marwan\AppData\Local\Temp\ccZ5CEyO.s 			page 38


 1166 0997 E8000000 		call	_glRotated@32
 1166      00
 1167 099c 83EC20   		subl	$32, %esp
 217:C:/Users/Marwan/OneDrive/Documents/GitHub/3D-graphics/project2\main.cpp ****     glutSolidCone(0.7,1,slices,stacks);
 1168              		.loc 2 217 0
 1169 099f 8B150400 		movl	__ZL6stacks, %edx
 1169      0000
 1170 09a5 A1000000 		movl	__ZL6slices, %eax
 1170      00
 1171 09aa 89542414 		movl	%edx, 20(%esp)
 1172 09ae 89442410 		movl	%eax, 16(%esp)
 1173 09b2 D9E8     		fld1
 1174 09b4 DD5C2408 		fstpl	8(%esp)
 1175 09b8 DD056000 		fldl	LC20
 1175      0000
 1176 09be DD1C24   		fstpl	(%esp)
 1177 09c1 E8000000 		call	_glutSolidCone@24
 1177      00
 1178 09c6 83EC18   		subl	$24, %esp
 218:C:/Users/Marwan/OneDrive/Documents/GitHub/3D-graphics/project2\main.cpp ****     glPopMatrix();
 1179              		.loc 2 218 0
 1180 09c9 E8000000 		call	_glPopMatrix@0
 1180      00
 219:C:/Users/Marwan/OneDrive/Documents/GitHub/3D-graphics/project2\main.cpp ****  glLoadIdentity();
 1181              		.loc 2 219 0
 1182 09ce E8000000 		call	_glLoadIdentity@0
 1182      00
 220:C:/Users/Marwan/OneDrive/Documents/GitHub/3D-graphics/project2\main.cpp **** 
 221:C:/Users/Marwan/OneDrive/Documents/GitHub/3D-graphics/project2\main.cpp ****     glPushMatrix();
 1183              		.loc 2 221 0
 1184 09d3 E8000000 		call	_glPushMatrix@0
 1184      00
 222:C:/Users/Marwan/OneDrive/Documents/GitHub/3D-graphics/project2\main.cpp ****    glColor3f(0.133, 0.545, 0.133);
 1185              		.loc 2 222 0
 1186 09d8 D9054000 		flds	LC13
 1186      0000
 1187 09de D95C2408 		fstps	8(%esp)
 1188 09e2 D9054400 		flds	LC14
 1188      0000
 1189 09e8 D95C2404 		fstps	4(%esp)
 1190 09ec D9054000 		flds	LC13
 1190      0000
 1191 09f2 D91C24   		fstps	(%esp)
 1192 09f5 E8000000 		call	_glColor3f@12
 1192      00
 1193 09fa 83EC0C   		subl	$12, %esp
 223:C:/Users/Marwan/OneDrive/Documents/GitHub/3D-graphics/project2\main.cpp ****     glTranslated(-4.35+x,-1.7+4+y,-20+z);
 1194              		.loc 2 223 0
 1195 09fd 8B4510   		movl	16(%ebp), %eax
 1196 0a00 83E814   		subl	$20, %eax
 1197 0a03 8945F4   		movl	%eax, -12(%ebp)
 1198 0a06 DB45F4   		fildl	-12(%ebp)
 1199 0a09 DB450C   		fildl	12(%ebp)
 1200 0a0c DD056800 		fldl	LC21
 1200      0000
 1201 0a12 DEC1     		faddp	%st, %st(1)
 1202 0a14 DB4508   		fildl	8(%ebp)
GAS LISTING C:\Users\Marwan\AppData\Local\Temp\ccZ5CEyO.s 			page 39


 1203 0a17 DD055000 		fldl	LC16
 1203      0000
 1204 0a1d DEE9     		fsubrp	%st, %st(1)
 1205 0a1f D9CA     		fxch	%st(2)
 1206 0a21 DD5C2410 		fstpl	16(%esp)
 1207 0a25 DD5C2408 		fstpl	8(%esp)
 1208 0a29 DD1C24   		fstpl	(%esp)
 1209 0a2c E8000000 		call	_glTranslated@24
 1209      00
 1210 0a31 83EC18   		subl	$24, %esp
 224:C:/Users/Marwan/OneDrive/Documents/GitHub/3D-graphics/project2\main.cpp ****     glRotated(-90,1,0,0);
 1211              		.loc 2 224 0
 1212 0a34 D9EE     		fldz
 1213 0a36 DD5C2418 		fstpl	24(%esp)
 1214 0a3a D9EE     		fldz
 1215 0a3c DD5C2410 		fstpl	16(%esp)
 1216 0a40 D9E8     		fld1
 1217 0a42 DD5C2408 		fstpl	8(%esp)
 1218 0a46 DD055800 		fldl	LC19
 1218      0000
 1219 0a4c DD1C24   		fstpl	(%esp)
 1220 0a4f E8000000 		call	_glRotated@32
 1220      00
 1221 0a54 83EC20   		subl	$32, %esp
 225:C:/Users/Marwan/OneDrive/Documents/GitHub/3D-graphics/project2\main.cpp ****     glutSolidCone(0.9,1,slices,stacks);
 1222              		.loc 2 225 0
 1223 0a57 8B150400 		movl	__ZL6stacks, %edx
 1223      0000
 1224 0a5d A1000000 		movl	__ZL6slices, %eax
 1224      00
 1225 0a62 89542414 		movl	%edx, 20(%esp)
 1226 0a66 89442410 		movl	%eax, 16(%esp)
 1227 0a6a D9E8     		fld1
 1228 0a6c DD5C2408 		fstpl	8(%esp)
 1229 0a70 DD057000 		fldl	LC22
 1229      0000
 1230 0a76 DD1C24   		fstpl	(%esp)
 1231 0a79 E8000000 		call	_glutSolidCone@24
 1231      00
 1232 0a7e 83EC18   		subl	$24, %esp
 226:C:/Users/Marwan/OneDrive/Documents/GitHub/3D-graphics/project2\main.cpp ****     glPopMatrix();
 1233              		.loc 2 226 0
 1234 0a81 E8000000 		call	_glPopMatrix@0
 1234      00
 227:C:/Users/Marwan/OneDrive/Documents/GitHub/3D-graphics/project2\main.cpp ****  glLoadIdentity();
 1235              		.loc 2 227 0
 1236 0a86 E8000000 		call	_glLoadIdentity@0
 1236      00
 228:C:/Users/Marwan/OneDrive/Documents/GitHub/3D-graphics/project2\main.cpp ****     glPushMatrix();
 1237              		.loc 2 228 0
 1238 0a8b E8000000 		call	_glPushMatrix@0
 1238      00
 229:C:/Users/Marwan/OneDrive/Documents/GitHub/3D-graphics/project2\main.cpp ****     glColor3f(0.133, 0.545, 0.133);
 1239              		.loc 2 229 0
 1240 0a90 D9054000 		flds	LC13
 1240      0000
 1241 0a96 D95C2408 		fstps	8(%esp)
GAS LISTING C:\Users\Marwan\AppData\Local\Temp\ccZ5CEyO.s 			page 40


 1242 0a9a D9054400 		flds	LC14
 1242      0000
 1243 0aa0 D95C2404 		fstps	4(%esp)
 1244 0aa4 D9054000 		flds	LC13
 1244      0000
 1245 0aaa D91C24   		fstps	(%esp)
 1246 0aad E8000000 		call	_glColor3f@12
 1246      00
 1247 0ab2 83EC0C   		subl	$12, %esp
 230:C:/Users/Marwan/OneDrive/Documents/GitHub/3D-graphics/project2\main.cpp ****     glTranslated(-4.35+x,-2.2+4+y,-20+z);
 1248              		.loc 2 230 0
 1249 0ab5 8B4510   		movl	16(%ebp), %eax
 1250 0ab8 83E814   		subl	$20, %eax
 1251 0abb 8945F4   		movl	%eax, -12(%ebp)
 1252 0abe DB45F4   		fildl	-12(%ebp)
 1253 0ac1 DB450C   		fildl	12(%ebp)
 1254 0ac4 DD057800 		fldl	LC23
 1254      0000
 1255 0aca DEC1     		faddp	%st, %st(1)
 1256 0acc DB4508   		fildl	8(%ebp)
 1257 0acf DD055000 		fldl	LC16
 1257      0000
 1258 0ad5 DEE9     		fsubrp	%st, %st(1)
 1259 0ad7 D9CA     		fxch	%st(2)
 1260 0ad9 DD5C2410 		fstpl	16(%esp)
 1261 0add DD5C2408 		fstpl	8(%esp)
 1262 0ae1 DD1C24   		fstpl	(%esp)
 1263 0ae4 E8000000 		call	_glTranslated@24
 1263      00
 1264 0ae9 83EC18   		subl	$24, %esp
 231:C:/Users/Marwan/OneDrive/Documents/GitHub/3D-graphics/project2\main.cpp ****     glRotated(-90,1,0,0);
 1265              		.loc 2 231 0
 1266 0aec D9EE     		fldz
 1267 0aee DD5C2418 		fstpl	24(%esp)
 1268 0af2 D9EE     		fldz
 1269 0af4 DD5C2410 		fstpl	16(%esp)
 1270 0af8 D9E8     		fld1
 1271 0afa DD5C2408 		fstpl	8(%esp)
 1272 0afe DD055800 		fldl	LC19
 1272      0000
 1273 0b04 DD1C24   		fstpl	(%esp)
 1274 0b07 E8000000 		call	_glRotated@32
 1274      00
 1275 0b0c 83EC20   		subl	$32, %esp
 232:C:/Users/Marwan/OneDrive/Documents/GitHub/3D-graphics/project2\main.cpp ****     glutSolidCone(1.2,1,slices,stacks);
 1276              		.loc 2 232 0
 1277 0b0f 8B150400 		movl	__ZL6stacks, %edx
 1277      0000
 1278 0b15 A1000000 		movl	__ZL6slices, %eax
 1278      00
 1279 0b1a 89542414 		movl	%edx, 20(%esp)
 1280 0b1e 89442410 		movl	%eax, 16(%esp)
 1281 0b22 D9E8     		fld1
 1282 0b24 DD5C2408 		fstpl	8(%esp)
 1283 0b28 DD058000 		fldl	LC24
 1283      0000
 1284 0b2e DD1C24   		fstpl	(%esp)
GAS LISTING C:\Users\Marwan\AppData\Local\Temp\ccZ5CEyO.s 			page 41


 1285 0b31 E8000000 		call	_glutSolidCone@24
 1285      00
 1286 0b36 83EC18   		subl	$24, %esp
 233:C:/Users/Marwan/OneDrive/Documents/GitHub/3D-graphics/project2\main.cpp ****     glPopMatrix();
 1287              		.loc 2 233 0
 1288 0b39 E8000000 		call	_glPopMatrix@0
 1288      00
 234:C:/Users/Marwan/OneDrive/Documents/GitHub/3D-graphics/project2\main.cpp ****  glLoadIdentity();
 1289              		.loc 2 234 0
 1290 0b3e E8000000 		call	_glLoadIdentity@0
 1290      00
 235:C:/Users/Marwan/OneDrive/Documents/GitHub/3D-graphics/project2\main.cpp ****     glColor3f(0.3,0,0);
 1291              		.loc 2 235 0
 1292 0b43 D9EE     		fldz
 1293 0b45 D95C2408 		fstps	8(%esp)
 1294 0b49 D9EE     		fldz
 1295 0b4b D95C2404 		fstps	4(%esp)
 1296 0b4f D9058800 		flds	LC25
 1296      0000
 1297 0b55 D91C24   		fstps	(%esp)
 1298 0b58 E8000000 		call	_glColor3f@12
 1298      00
 1299 0b5d 83EC0C   		subl	$12, %esp
 236:C:/Users/Marwan/OneDrive/Documents/GitHub/3D-graphics/project2\main.cpp ****     glPushMatrix();
 1300              		.loc 2 236 0
 1301 0b60 E8000000 		call	_glPushMatrix@0
 1301      00
 237:C:/Users/Marwan/OneDrive/Documents/GitHub/3D-graphics/project2\main.cpp ****     //glColor3f(0.133, 0.545, 0.133);
 238:C:/Users/Marwan/OneDrive/Documents/GitHub/3D-graphics/project2\main.cpp ****     glTranslated(-4.35+x,-3+4+y,-20+z);
 1302              		.loc 2 238 0
 1303 0b65 8B4510   		movl	16(%ebp), %eax
 1304 0b68 83E814   		subl	$20, %eax
 1305 0b6b 8945F4   		movl	%eax, -12(%ebp)
 1306 0b6e DB45F4   		fildl	-12(%ebp)
 1307 0b71 8B450C   		movl	12(%ebp), %eax
 1308 0b74 83C001   		addl	$1, %eax
 1309 0b77 8945F4   		movl	%eax, -12(%ebp)
 1310 0b7a DB45F4   		fildl	-12(%ebp)
 1311 0b7d DB4508   		fildl	8(%ebp)
 1312 0b80 DD055000 		fldl	LC16
 1312      0000
 1313 0b86 DEE9     		fsubrp	%st, %st(1)
 1314 0b88 D9CA     		fxch	%st(2)
 1315 0b8a DD5C2410 		fstpl	16(%esp)
 1316 0b8e DD5C2408 		fstpl	8(%esp)
 1317 0b92 DD1C24   		fstpl	(%esp)
 1318 0b95 E8000000 		call	_glTranslated@24
 1318      00
 1319 0b9a 83EC18   		subl	$24, %esp
 239:C:/Users/Marwan/OneDrive/Documents/GitHub/3D-graphics/project2\main.cpp ****     glRotated(-90,1,0,0);
 1320              		.loc 2 239 0
 1321 0b9d D9EE     		fldz
 1322 0b9f DD5C2418 		fstpl	24(%esp)
 1323 0ba3 D9EE     		fldz
 1324 0ba5 DD5C2410 		fstpl	16(%esp)
 1325 0ba9 D9E8     		fld1
 1326 0bab DD5C2408 		fstpl	8(%esp)
GAS LISTING C:\Users\Marwan\AppData\Local\Temp\ccZ5CEyO.s 			page 42


 1327 0baf DD055800 		fldl	LC19
 1327      0000
 1328 0bb5 DD1C24   		fstpl	(%esp)
 1329 0bb8 E8000000 		call	_glRotated@32
 1329      00
 1330 0bbd 83EC20   		subl	$32, %esp
 240:C:/Users/Marwan/OneDrive/Documents/GitHub/3D-graphics/project2\main.cpp ****     glutSolidCone(0.5,2,slices,stacks);
 1331              		.loc 2 240 0
 1332 0bc0 8B150400 		movl	__ZL6stacks, %edx
 1332      0000
 1333 0bc6 A1000000 		movl	__ZL6slices, %eax
 1333      00
 1334 0bcb 89542414 		movl	%edx, 20(%esp)
 1335 0bcf 89442410 		movl	%eax, 16(%esp)
 1336 0bd3 DD053800 		fldl	LC12
 1336      0000
 1337 0bd9 DD5C2408 		fstpl	8(%esp)
 1338 0bdd DD059000 		fldl	LC26
 1338      0000
 1339 0be3 DD1C24   		fstpl	(%esp)
 1340 0be6 E8000000 		call	_glutSolidCone@24
 1340      00
 1341 0beb 83EC18   		subl	$24, %esp
 241:C:/Users/Marwan/OneDrive/Documents/GitHub/3D-graphics/project2\main.cpp ****     glPopMatrix();
 1342              		.loc 2 241 0
 1343 0bee E8000000 		call	_glPopMatrix@0
 1343      00
 242:C:/Users/Marwan/OneDrive/Documents/GitHub/3D-graphics/project2\main.cpp ****         glPopMatrix();
 1344              		.loc 2 242 0
 1345 0bf3 E8000000 		call	_glPopMatrix@0
 1345      00
 243:C:/Users/Marwan/OneDrive/Documents/GitHub/3D-graphics/project2\main.cpp **** }
 1346              		.loc 2 243 0
 1347 0bf8 90       		nop
 1348 0bf9 C9       		leave
 1349              		.cfi_restore 5
 1350              		.cfi_def_cfa 4, 4
 1351 0bfa C3       		ret
 1352              		.cfi_endproc
 1353              	LFE14:
 1355              		.section .rdata,"dr"
 1356              	LC27:
 1357 0000 31383130 		.ascii "18100322/18101712\0"
 1357      30333232 
 1357      2F313831 
 1357      30313731 
 1357      3200
 1358              		.text
 1359              		.globl	_main
 1361              	_main:
 1362              	LFB15:
 244:C:/Users/Marwan/OneDrive/Documents/GitHub/3D-graphics/project2\main.cpp **** int main(int argc, char**argv){
 1363              		.loc 2 244 0
 1364              		.cfi_startproc
 1365 0bfb 8D4C2404 		leal	4(%esp), %ecx
 1366              		.cfi_def_cfa 1, 0
 1367 0bff 83E4F0   		andl	$-16, %esp
GAS LISTING C:\Users\Marwan\AppData\Local\Temp\ccZ5CEyO.s 			page 43


 1368 0c02 FF71FC   		pushl	-4(%ecx)
 1369 0c05 55       		pushl	%ebp
 1370              		.cfi_escape 0x10,0x5,0x2,0x75,0
 1371 0c06 89E5     		movl	%esp, %ebp
 1372 0c08 53       		pushl	%ebx
 1373 0c09 51       		pushl	%ecx
 1374              		.cfi_escape 0xf,0x3,0x75,0x78,0x6
 1375              		.cfi_escape 0x10,0x3,0x2,0x75,0x7c
 1376 0c0a 83EC10   		subl	$16, %esp
 1377 0c0d 89CB     		movl	%ecx, %ebx
 1378              		.loc 2 244 0
 1379 0c0f E8000000 		call	___main
 1379      00
 245:C:/Users/Marwan/OneDrive/Documents/GitHub/3D-graphics/project2\main.cpp **** 
 246:C:/Users/Marwan/OneDrive/Documents/GitHub/3D-graphics/project2\main.cpp ****     glutInit(&argc , argv); // initialize glut
 1380              		.loc 2 246 0
 1381 0c14 8B4304   		movl	4(%ebx), %eax
 1382 0c17 89442404 		movl	%eax, 4(%esp)
 1383 0c1b 891C24   		movl	%ebx, (%esp)
 1384 0c1e E8DDF3FF 		call	_glutInit_ATEXIT_HACK@8
 1384      FF
 1385 0c23 83EC08   		subl	$8, %esp
 247:C:/Users/Marwan/OneDrive/Documents/GitHub/3D-graphics/project2\main.cpp ****     glutInitDisplayMode(GLUT_RGB | GLUT_DOUBLE |GLUT_DEPTH);// display mode / goint to use rgb colo
 1386              		.loc 2 247 0
 1387 0c26 C7042412 		movl	$18, (%esp)
 1387      000000
 1388 0c2d E8000000 		call	_glutInitDisplayMode@4
 1388      00
 1389 0c32 83EC04   		subl	$4, %esp
 248:C:/Users/Marwan/OneDrive/Documents/GitHub/3D-graphics/project2\main.cpp ****     //initialize window
 249:C:/Users/Marwan/OneDrive/Documents/GitHub/3D-graphics/project2\main.cpp ****     glutInitWindowPosition(700,200);
 1390              		.loc 2 249 0
 1391 0c35 C7442404 		movl	$200, 4(%esp)
 1391      C8000000 
 1392 0c3d C70424BC 		movl	$700, (%esp)
 1392      020000
 1393 0c44 E8000000 		call	_glutInitWindowPosition@8
 1393      00
 1394 0c49 83EC08   		subl	$8, %esp
 250:C:/Users/Marwan/OneDrive/Documents/GitHub/3D-graphics/project2\main.cpp ****     glutInitWindowSize(800,700);
 1395              		.loc 2 250 0
 1396 0c4c C7442404 		movl	$700, 4(%esp)
 1396      BC020000 
 1397 0c54 C7042420 		movl	$800, (%esp)
 1397      030000
 1398 0c5b E8000000 		call	_glutInitWindowSize@8
 1398      00
 1399 0c60 83EC08   		subl	$8, %esp
 251:C:/Users/Marwan/OneDrive/Documents/GitHub/3D-graphics/project2\main.cpp ****     //function that creates window
 252:C:/Users/Marwan/OneDrive/Documents/GitHub/3D-graphics/project2\main.cpp ****     glutCreateWindow("18100322/18101712"); // takes initialization and creates window
 1400              		.loc 2 252 0
 1401 0c63 C7042400 		movl	$LC27, (%esp)
 1401      000000
 1402 0c6a E8B9F3FF 		call	_glutCreateWindow_ATEXIT_HACK@4
 1402      FF
 1403 0c6f 83EC04   		subl	$4, %esp
 253:C:/Users/Marwan/OneDrive/Documents/GitHub/3D-graphics/project2\main.cpp ****     init();
GAS LISTING C:\Users\Marwan\AppData\Local\Temp\ccZ5CEyO.s 			page 44


 1404              		.loc 2 253 0
 1405 0c72 E8F1F3FF 		call	__Z4initv
 1405      FF
 254:C:/Users/Marwan/OneDrive/Documents/GitHub/3D-graphics/project2\main.cpp **** 
 255:C:/Users/Marwan/OneDrive/Documents/GitHub/3D-graphics/project2\main.cpp **** 
 256:C:/Users/Marwan/OneDrive/Documents/GitHub/3D-graphics/project2\main.cpp ****     //function that displays my display function // function that reshapes with my reshape function
 257:C:/Users/Marwan/OneDrive/Documents/GitHub/3D-graphics/project2\main.cpp ****     glutDisplayFunc(display); // the parameter is my display function which is initialized before m
 1406              		.loc 2 257 0
 1407 0c77 C7042416 		movl	$__Z7displayv, (%esp)
 1407      0D0000
 1408 0c7e E8000000 		call	_glutDisplayFunc@4
 1408      00
 1409 0c83 83EC04   		subl	$4, %esp
 258:C:/Users/Marwan/OneDrive/Documents/GitHub/3D-graphics/project2\main.cpp ****     glutReshapeFunc(reshape); // the parameters are my reshape function
 1410              		.loc 2 258 0
 1411 0c86 C70424A5 		movl	$__Z7reshapeii, (%esp)
 1411      1F0000
 1412 0c8d E8000000 		call	_glutReshapeFunc@4
 1412      00
 1413 0c92 83EC04   		subl	$4, %esp
 259:C:/Users/Marwan/OneDrive/Documents/GitHub/3D-graphics/project2\main.cpp ****     glutKeyboardFunc(keyboard);
 1414              		.loc 2 259 0
 1415 0c95 C704249C 		movl	$__Z8keyboardhii, (%esp)
 1415      000000
 1416 0c9c E8000000 		call	_glutKeyboardFunc@4
 1416      00
 1417 0ca1 83EC04   		subl	$4, %esp
 260:C:/Users/Marwan/OneDrive/Documents/GitHub/3D-graphics/project2\main.cpp **** //    glutMouseFunc(OnMouseClick);
 261:C:/Users/Marwan/OneDrive/Documents/GitHub/3D-graphics/project2\main.cpp ****    // glutTimerFunc(1000,timer,0); // function will wait time given, then runs the function we poin
 262:C:/Users/Marwan/OneDrive/Documents/GitHub/3D-graphics/project2\main.cpp ****      // setting back ground color;
 263:C:/Users/Marwan/OneDrive/Documents/GitHub/3D-graphics/project2\main.cpp ****     glutIdleFunc(idleFunc);
 1418              		.loc 2 263 0
 1419 0ca4 C70424CD 		movl	$__Z8idleFuncv, (%esp)
 1419      1E0000
 1420 0cab E8000000 		call	_glutIdleFunc@4
 1420      00
 1421 0cb0 83EC04   		subl	$4, %esp
 264:C:/Users/Marwan/OneDrive/Documents/GitHub/3D-graphics/project2\main.cpp ****     glutTimerFunc(0, timer, 0);     // First timer call immediately
 1422              		.loc 2 264 0
 1423 0cb3 C7442408 		movl	$0, 8(%esp)
 1423      00000000 
 1424 0cbb C7442404 		movl	$__Z5timeri, 4(%esp)
 1424      DB1E0000 
 1425 0cc3 C7042400 		movl	$0, (%esp)
 1425      000000
 1426 0cca E8000000 		call	_glutTimerFunc@12
 1426      00
 1427 0ccf 83EC0C   		subl	$12, %esp
 265:C:/Users/Marwan/OneDrive/Documents/GitHub/3D-graphics/project2\main.cpp ****     glClearColor(0.529, 0.808, 0.922, 0);
 1428              		.loc 2 265 0
 1429 0cd2 D9EE     		fldz
 1430 0cd4 D95C240C 		fstps	12(%esp)
 1431 0cd8 D9051400 		flds	LC1
 1431      0000
 1432 0cde D95C2408 		fstps	8(%esp)
 1433 0ce2 D9051800 		flds	LC2
 1433      0000
GAS LISTING C:\Users\Marwan\AppData\Local\Temp\ccZ5CEyO.s 			page 45


 1434 0ce8 D95C2404 		fstps	4(%esp)
 1435 0cec D9051C00 		flds	LC3
 1435      0000
 1436 0cf2 D91C24   		fstps	(%esp)
 1437 0cf5 E8000000 		call	_glClearColor@16
 1437      00
 1438 0cfa 83EC10   		subl	$16, %esp
 266:C:/Users/Marwan/OneDrive/Documents/GitHub/3D-graphics/project2\main.cpp ****           texture(); // function controlling light etc...
 1439              		.loc 2 266 0
 1440 0cfd E8251300 		call	__Z7texturev
 1440      00
 267:C:/Users/Marwan/OneDrive/Documents/GitHub/3D-graphics/project2\main.cpp ****     glutMainLoop();//looping main to update changes
 1441              		.loc 2 267 0
 1442 0d02 E8000000 		call	_glutMainLoop@0
 1442      00
 268:C:/Users/Marwan/OneDrive/Documents/GitHub/3D-graphics/project2\main.cpp **** 
 269:C:/Users/Marwan/OneDrive/Documents/GitHub/3D-graphics/project2\main.cpp **** 
 270:C:/Users/Marwan/OneDrive/Documents/GitHub/3D-graphics/project2\main.cpp **** }
 1443              		.loc 2 270 0
 1444 0d07 B8000000 		movl	$0, %eax
 1444      00
 1445 0d0c 8D65F8   		leal	-8(%ebp), %esp
 1446 0d0f 59       		popl	%ecx
 1447              		.cfi_restore 1
 1448              		.cfi_def_cfa 1, 0
 1449 0d10 5B       		popl	%ebx
 1450              		.cfi_restore 3
 1451 0d11 5D       		popl	%ebp
 1452              		.cfi_restore 5
 1453 0d12 8D61FC   		leal	-4(%ecx), %esp
 1454              		.cfi_def_cfa 4, 4
 1455 0d15 C3       		ret
 1456              		.cfi_endproc
 1457              	LFE15:
 1458              		.globl	__Z7displayv
 1460              	__Z7displayv:
 1461              	LFB16:
 271:C:/Users/Marwan/OneDrive/Documents/GitHub/3D-graphics/project2\main.cpp ****     void display(){
 1462              		.loc 2 271 0
 1463              		.cfi_startproc
 1464 0d16 55       		pushl	%ebp
 1465              		.cfi_def_cfa_offset 8
 1466              		.cfi_offset 5, -8
 1467 0d17 89E5     		movl	%esp, %ebp
 1468              		.cfi_def_cfa_register 5
 1469 0d19 83EC38   		subl	$56, %esp
 272:C:/Users/Marwan/OneDrive/Documents/GitHub/3D-graphics/project2\main.cpp **** 
 273:C:/Users/Marwan/OneDrive/Documents/GitHub/3D-graphics/project2\main.cpp ****             glClear(GL_COLOR_BUFFER_BIT | GL_DEPTH_BUFFER_BIT); // buffer saves color on screen / t
 1470              		.loc 2 273 0
 1471 0d1c C7042400 		movl	$16640, (%esp)
 1471      410000
 1472 0d23 E8000000 		call	_glClear@4
 1472      00
 1473 0d28 83EC04   		subl	$4, %esp
 274:C:/Users/Marwan/OneDrive/Documents/GitHub/3D-graphics/project2\main.cpp **** 
 275:C:/Users/Marwan/OneDrive/Documents/GitHub/3D-graphics/project2\main.cpp ****              glLoadIdentity();
 1474              		.loc 2 275 0
GAS LISTING C:\Users\Marwan\AppData\Local\Temp\ccZ5CEyO.s 			page 46


 1475 0d2b E8000000 		call	_glLoadIdentity@0
 1475      00
 276:C:/Users/Marwan/OneDrive/Documents/GitHub/3D-graphics/project2\main.cpp ****              glPushMatrix();
 1476              		.loc 2 276 0
 1477 0d30 E8000000 		call	_glPushMatrix@0
 1477      00
 277:C:/Users/Marwan/OneDrive/Documents/GitHub/3D-graphics/project2\main.cpp ****              glScalef(cubesize,cubesize,1);
 1478              		.loc 2 277 0
 1479 0d35 DD053000 		fldl	_cubesize
 1479      0000
 1480 0d3b D95DF4   		fstps	-12(%ebp)
 1481 0d3e D945F4   		flds	-12(%ebp)
 1482 0d41 DD053000 		fldl	_cubesize
 1482      0000
 1483 0d47 D95DF4   		fstps	-12(%ebp)
 1484 0d4a D945F4   		flds	-12(%ebp)
 1485 0d4d D9E8     		fld1
 1486 0d4f D95C2408 		fstps	8(%esp)
 1487 0d53 D9C9     		fxch	%st(1)
 1488 0d55 D95C2404 		fstps	4(%esp)
 1489 0d59 D91C24   		fstps	(%esp)
 1490 0d5c E8000000 		call	_glScalef@12
 1490      00
 1491 0d61 83EC0C   		subl	$12, %esp
 278:C:/Users/Marwan/OneDrive/Documents/GitHub/3D-graphics/project2\main.cpp ****         glTranslatef(0, 0.0f, -15.0f);
 1492              		.loc 2 278 0
 1493 0d64 D9052400 		flds	LC8
 1493      0000
 1494 0d6a D95C2408 		fstps	8(%esp)
 1495 0d6e D9EE     		fldz
 1496 0d70 D95C2404 		fstps	4(%esp)
 1497 0d74 D9EE     		fldz
 1498 0d76 D91C24   		fstps	(%esp)
 1499 0d79 E8000000 		call	_glTranslatef@12
 1499      00
 1500 0d7e 83EC0C   		subl	$12, %esp
 279:C:/Users/Marwan/OneDrive/Documents/GitHub/3D-graphics/project2\main.cpp ****         glRotatef(angleCube, 1.0f, 1.0f, 1.0f);  // Rotate about (1,1,1)-axis
 1501              		.loc 2 279 0
 1502 0d81 D9055400 		flds	_angleCube
 1502      0000
 1503 0d87 D9E8     		fld1
 1504 0d89 D95C240C 		fstps	12(%esp)
 1505 0d8d D9E8     		fld1
 1506 0d8f D95C2408 		fstps	8(%esp)
 1507 0d93 D9E8     		fld1
 1508 0d95 D95C2404 		fstps	4(%esp)
 1509 0d99 D91C24   		fstps	(%esp)
 1510 0d9c E8000000 		call	_glRotatef@16
 1510      00
 1511 0da1 83EC10   		subl	$16, %esp
 280:C:/Users/Marwan/OneDrive/Documents/GitHub/3D-graphics/project2\main.cpp **** 
 281:C:/Users/Marwan/OneDrive/Documents/GitHub/3D-graphics/project2\main.cpp ****             glBegin(GL_QUADS);                // Begin drawing the color cube with 6 quads
 1512              		.loc 2 281 0
 1513 0da4 C7042407 		movl	$7, (%esp)
 1513      000000
 1514 0dab E8000000 		call	_glBegin@4
 1514      00
GAS LISTING C:\Users\Marwan\AppData\Local\Temp\ccZ5CEyO.s 			page 47


 1515 0db0 83EC04   		subl	$4, %esp
 282:C:/Users/Marwan/OneDrive/Documents/GitHub/3D-graphics/project2\main.cpp ****           // Top face (y = 1.0f)
 283:C:/Users/Marwan/OneDrive/Documents/GitHub/3D-graphics/project2\main.cpp ****           // Define vertices in counter-clockwise (CCW) order with normal pointing out
 284:C:/Users/Marwan/OneDrive/Documents/GitHub/3D-graphics/project2\main.cpp **** 
 285:C:/Users/Marwan/OneDrive/Documents/GitHub/3D-graphics/project2\main.cpp ****           glColor3f(0.0f, 1.0f, 0.0f);     // Green
 1516              		.loc 2 285 0
 1517 0db3 D9EE     		fldz
 1518 0db5 D95C2408 		fstps	8(%esp)
 1519 0db9 D9E8     		fld1
 1520 0dbb D95C2404 		fstps	4(%esp)
 1521 0dbf D9EE     		fldz
 1522 0dc1 D91C24   		fstps	(%esp)
 1523 0dc4 E8000000 		call	_glColor3f@12
 1523      00
 1524 0dc9 83EC0C   		subl	$12, %esp
 286:C:/Users/Marwan/OneDrive/Documents/GitHub/3D-graphics/project2\main.cpp ****           glVertex3f( 1.0f, 1.0f, -1.0f);
 1525              		.loc 2 286 0
 1526 0dcc D9E8     		fld1
 1527 0dce D9E0     		fchs
 1528 0dd0 D95C2408 		fstps	8(%esp)
 1529 0dd4 D9E8     		fld1
 1530 0dd6 D95C2404 		fstps	4(%esp)
 1531 0dda D9E8     		fld1
 1532 0ddc D91C24   		fstps	(%esp)
 1533 0ddf E8000000 		call	_glVertex3f@12
 1533      00
 1534 0de4 83EC0C   		subl	$12, %esp
 287:C:/Users/Marwan/OneDrive/Documents/GitHub/3D-graphics/project2\main.cpp ****           glVertex3f(-1.0f, 1.0f, -1.0f);
 1535              		.loc 2 287 0
 1536 0de7 D9E8     		fld1
 1537 0de9 D9E0     		fchs
 1538 0deb D95C2408 		fstps	8(%esp)
 1539 0def D9E8     		fld1
 1540 0df1 D95C2404 		fstps	4(%esp)
 1541 0df5 D9E8     		fld1
 1542 0df7 D9E0     		fchs
 1543 0df9 D91C24   		fstps	(%esp)
 1544 0dfc E8000000 		call	_glVertex3f@12
 1544      00
 1545 0e01 83EC0C   		subl	$12, %esp
 288:C:/Users/Marwan/OneDrive/Documents/GitHub/3D-graphics/project2\main.cpp ****           glVertex3f(-1.0f, 1.0f,  1.0f);
 1546              		.loc 2 288 0
 1547 0e04 D9E8     		fld1
 1548 0e06 D95C2408 		fstps	8(%esp)
 1549 0e0a D9E8     		fld1
 1550 0e0c D95C2404 		fstps	4(%esp)
 1551 0e10 D9E8     		fld1
 1552 0e12 D9E0     		fchs
 1553 0e14 D91C24   		fstps	(%esp)
 1554 0e17 E8000000 		call	_glVertex3f@12
 1554      00
 1555 0e1c 83EC0C   		subl	$12, %esp
 289:C:/Users/Marwan/OneDrive/Documents/GitHub/3D-graphics/project2\main.cpp ****           glVertex3f( 1.0f, 1.0f,  1.0f);
 1556              		.loc 2 289 0
 1557 0e1f D9E8     		fld1
 1558 0e21 D95C2408 		fstps	8(%esp)
 1559 0e25 D9E8     		fld1
GAS LISTING C:\Users\Marwan\AppData\Local\Temp\ccZ5CEyO.s 			page 48


 1560 0e27 D95C2404 		fstps	4(%esp)
 1561 0e2b D9E8     		fld1
 1562 0e2d D91C24   		fstps	(%esp)
 1563 0e30 E8000000 		call	_glVertex3f@12
 1563      00
 1564 0e35 83EC0C   		subl	$12, %esp
 290:C:/Users/Marwan/OneDrive/Documents/GitHub/3D-graphics/project2\main.cpp **** 
 291:C:/Users/Marwan/OneDrive/Documents/GitHub/3D-graphics/project2\main.cpp ****           // Bottom face (y = -1.0f)
 292:C:/Users/Marwan/OneDrive/Documents/GitHub/3D-graphics/project2\main.cpp ****           glColor3f(1.0f, 0.5f, 0.0f);     // Orange
 1565              		.loc 2 292 0
 1566 0e38 D9EE     		fldz
 1567 0e3a D95C2408 		fstps	8(%esp)
 1568 0e3e D9052C00 		flds	LC10
 1568      0000
 1569 0e44 D95C2404 		fstps	4(%esp)
 1570 0e48 D9E8     		fld1
 1571 0e4a D91C24   		fstps	(%esp)
 1572 0e4d E8000000 		call	_glColor3f@12
 1572      00
 1573 0e52 83EC0C   		subl	$12, %esp
 293:C:/Users/Marwan/OneDrive/Documents/GitHub/3D-graphics/project2\main.cpp ****           glVertex3f( 1.0f, -1.0f,  1.0f);
 1574              		.loc 2 293 0
 1575 0e55 D9E8     		fld1
 1576 0e57 D95C2408 		fstps	8(%esp)
 1577 0e5b D9E8     		fld1
 1578 0e5d D9E0     		fchs
 1579 0e5f D95C2404 		fstps	4(%esp)
 1580 0e63 D9E8     		fld1
 1581 0e65 D91C24   		fstps	(%esp)
 1582 0e68 E8000000 		call	_glVertex3f@12
 1582      00
 1583 0e6d 83EC0C   		subl	$12, %esp
 294:C:/Users/Marwan/OneDrive/Documents/GitHub/3D-graphics/project2\main.cpp ****           glVertex3f(-1.0f, -1.0f,  1.0f);
 1584              		.loc 2 294 0
 1585 0e70 D9E8     		fld1
 1586 0e72 D95C2408 		fstps	8(%esp)
 1587 0e76 D9E8     		fld1
 1588 0e78 D9E0     		fchs
 1589 0e7a D95C2404 		fstps	4(%esp)
 1590 0e7e D9E8     		fld1
 1591 0e80 D9E0     		fchs
 1592 0e82 D91C24   		fstps	(%esp)
 1593 0e85 E8000000 		call	_glVertex3f@12
 1593      00
 1594 0e8a 83EC0C   		subl	$12, %esp
 295:C:/Users/Marwan/OneDrive/Documents/GitHub/3D-graphics/project2\main.cpp ****           glVertex3f(-1.0f, -1.0f, -1.0f);
 1595              		.loc 2 295 0
 1596 0e8d D9E8     		fld1
 1597 0e8f D9E0     		fchs
 1598 0e91 D95C2408 		fstps	8(%esp)
 1599 0e95 D9E8     		fld1
 1600 0e97 D9E0     		fchs
 1601 0e99 D95C2404 		fstps	4(%esp)
 1602 0e9d D9E8     		fld1
 1603 0e9f D9E0     		fchs
 1604 0ea1 D91C24   		fstps	(%esp)
 1605 0ea4 E8000000 		call	_glVertex3f@12
GAS LISTING C:\Users\Marwan\AppData\Local\Temp\ccZ5CEyO.s 			page 49


 1605      00
 1606 0ea9 83EC0C   		subl	$12, %esp
 296:C:/Users/Marwan/OneDrive/Documents/GitHub/3D-graphics/project2\main.cpp ****           glVertex3f( 1.0f, -1.0f, -1.0f);
 1607              		.loc 2 296 0
 1608 0eac D9E8     		fld1
 1609 0eae D9E0     		fchs
 1610 0eb0 D95C2408 		fstps	8(%esp)
 1611 0eb4 D9E8     		fld1
 1612 0eb6 D9E0     		fchs
 1613 0eb8 D95C2404 		fstps	4(%esp)
 1614 0ebc D9E8     		fld1
 1615 0ebe D91C24   		fstps	(%esp)
 1616 0ec1 E8000000 		call	_glVertex3f@12
 1616      00
 1617 0ec6 83EC0C   		subl	$12, %esp
 297:C:/Users/Marwan/OneDrive/Documents/GitHub/3D-graphics/project2\main.cpp **** 
 298:C:/Users/Marwan/OneDrive/Documents/GitHub/3D-graphics/project2\main.cpp ****           // Front face  (z = 1.0f)
 299:C:/Users/Marwan/OneDrive/Documents/GitHub/3D-graphics/project2\main.cpp ****           glColor3f(1.0f, 0.0f, 0.0f);     // Red
 1618              		.loc 2 299 0
 1619 0ec9 D9EE     		fldz
 1620 0ecb D95C2408 		fstps	8(%esp)
 1621 0ecf D9EE     		fldz
 1622 0ed1 D95C2404 		fstps	4(%esp)
 1623 0ed5 D9E8     		fld1
 1624 0ed7 D91C24   		fstps	(%esp)
 1625 0eda E8000000 		call	_glColor3f@12
 1625      00
 1626 0edf 83EC0C   		subl	$12, %esp
 300:C:/Users/Marwan/OneDrive/Documents/GitHub/3D-graphics/project2\main.cpp ****           glVertex3f( 1.0f,  1.0f, 1.0f);
 1627              		.loc 2 300 0
 1628 0ee2 D9E8     		fld1
 1629 0ee4 D95C2408 		fstps	8(%esp)
 1630 0ee8 D9E8     		fld1
 1631 0eea D95C2404 		fstps	4(%esp)
 1632 0eee D9E8     		fld1
 1633 0ef0 D91C24   		fstps	(%esp)
 1634 0ef3 E8000000 		call	_glVertex3f@12
 1634      00
 1635 0ef8 83EC0C   		subl	$12, %esp
 301:C:/Users/Marwan/OneDrive/Documents/GitHub/3D-graphics/project2\main.cpp ****           glVertex3f(-1.0f,  1.0f, 1.0f);
 1636              		.loc 2 301 0
 1637 0efb D9E8     		fld1
 1638 0efd D95C2408 		fstps	8(%esp)
 1639 0f01 D9E8     		fld1
 1640 0f03 D95C2404 		fstps	4(%esp)
 1641 0f07 D9E8     		fld1
 1642 0f09 D9E0     		fchs
 1643 0f0b D91C24   		fstps	(%esp)
 1644 0f0e E8000000 		call	_glVertex3f@12
 1644      00
 1645 0f13 83EC0C   		subl	$12, %esp
 302:C:/Users/Marwan/OneDrive/Documents/GitHub/3D-graphics/project2\main.cpp ****           glVertex3f(-1.0f, -1.0f, 1.0f);
 1646              		.loc 2 302 0
 1647 0f16 D9E8     		fld1
 1648 0f18 D95C2408 		fstps	8(%esp)
 1649 0f1c D9E8     		fld1
 1650 0f1e D9E0     		fchs
GAS LISTING C:\Users\Marwan\AppData\Local\Temp\ccZ5CEyO.s 			page 50


 1651 0f20 D95C2404 		fstps	4(%esp)
 1652 0f24 D9E8     		fld1
 1653 0f26 D9E0     		fchs
 1654 0f28 D91C24   		fstps	(%esp)
 1655 0f2b E8000000 		call	_glVertex3f@12
 1655      00
 1656 0f30 83EC0C   		subl	$12, %esp
 303:C:/Users/Marwan/OneDrive/Documents/GitHub/3D-graphics/project2\main.cpp ****           glVertex3f( 1.0f, -1.0f, 1.0f);
 1657              		.loc 2 303 0
 1658 0f33 D9E8     		fld1
 1659 0f35 D95C2408 		fstps	8(%esp)
 1660 0f39 D9E8     		fld1
 1661 0f3b D9E0     		fchs
 1662 0f3d D95C2404 		fstps	4(%esp)
 1663 0f41 D9E8     		fld1
 1664 0f43 D91C24   		fstps	(%esp)
 1665 0f46 E8000000 		call	_glVertex3f@12
 1665      00
 1666 0f4b 83EC0C   		subl	$12, %esp
 304:C:/Users/Marwan/OneDrive/Documents/GitHub/3D-graphics/project2\main.cpp **** 
 305:C:/Users/Marwan/OneDrive/Documents/GitHub/3D-graphics/project2\main.cpp ****           // Back face (z = -1.0f)
 306:C:/Users/Marwan/OneDrive/Documents/GitHub/3D-graphics/project2\main.cpp ****           glColor3f(1.0f, 1.0f, 0.0f);     // Yellow
 1667              		.loc 2 306 0
 1668 0f4e D9EE     		fldz
 1669 0f50 D95C2408 		fstps	8(%esp)
 1670 0f54 D9E8     		fld1
 1671 0f56 D95C2404 		fstps	4(%esp)
 1672 0f5a D9E8     		fld1
 1673 0f5c D91C24   		fstps	(%esp)
 1674 0f5f E8000000 		call	_glColor3f@12
 1674      00
 1675 0f64 83EC0C   		subl	$12, %esp
 307:C:/Users/Marwan/OneDrive/Documents/GitHub/3D-graphics/project2\main.cpp ****           glVertex3f( 1.0f, -1.0f, -1.0f);
 1676              		.loc 2 307 0
 1677 0f67 D9E8     		fld1
 1678 0f69 D9E0     		fchs
 1679 0f6b D95C2408 		fstps	8(%esp)
 1680 0f6f D9E8     		fld1
 1681 0f71 D9E0     		fchs
 1682 0f73 D95C2404 		fstps	4(%esp)
 1683 0f77 D9E8     		fld1
 1684 0f79 D91C24   		fstps	(%esp)
 1685 0f7c E8000000 		call	_glVertex3f@12
 1685      00
 1686 0f81 83EC0C   		subl	$12, %esp
 308:C:/Users/Marwan/OneDrive/Documents/GitHub/3D-graphics/project2\main.cpp ****           glVertex3f(-1.0f, -1.0f, -1.0f);
 1687              		.loc 2 308 0
 1688 0f84 D9E8     		fld1
 1689 0f86 D9E0     		fchs
 1690 0f88 D95C2408 		fstps	8(%esp)
 1691 0f8c D9E8     		fld1
 1692 0f8e D9E0     		fchs
 1693 0f90 D95C2404 		fstps	4(%esp)
 1694 0f94 D9E8     		fld1
 1695 0f96 D9E0     		fchs
 1696 0f98 D91C24   		fstps	(%esp)
 1697 0f9b E8000000 		call	_glVertex3f@12
GAS LISTING C:\Users\Marwan\AppData\Local\Temp\ccZ5CEyO.s 			page 51


 1697      00
 1698 0fa0 83EC0C   		subl	$12, %esp
 309:C:/Users/Marwan/OneDrive/Documents/GitHub/3D-graphics/project2\main.cpp ****           glVertex3f(-1.0f,  1.0f, -1.0f);
 1699              		.loc 2 309 0
 1700 0fa3 D9E8     		fld1
 1701 0fa5 D9E0     		fchs
 1702 0fa7 D95C2408 		fstps	8(%esp)
 1703 0fab D9E8     		fld1
 1704 0fad D95C2404 		fstps	4(%esp)
 1705 0fb1 D9E8     		fld1
 1706 0fb3 D9E0     		fchs
 1707 0fb5 D91C24   		fstps	(%esp)
 1708 0fb8 E8000000 		call	_glVertex3f@12
 1708      00
 1709 0fbd 83EC0C   		subl	$12, %esp
 310:C:/Users/Marwan/OneDrive/Documents/GitHub/3D-graphics/project2\main.cpp ****           glVertex3f( 1.0f,  1.0f, -1.0f);
 1710              		.loc 2 310 0
 1711 0fc0 D9E8     		fld1
 1712 0fc2 D9E0     		fchs
 1713 0fc4 D95C2408 		fstps	8(%esp)
 1714 0fc8 D9E8     		fld1
 1715 0fca D95C2404 		fstps	4(%esp)
 1716 0fce D9E8     		fld1
 1717 0fd0 D91C24   		fstps	(%esp)
 1718 0fd3 E8000000 		call	_glVertex3f@12
 1718      00
 1719 0fd8 83EC0C   		subl	$12, %esp
 311:C:/Users/Marwan/OneDrive/Documents/GitHub/3D-graphics/project2\main.cpp **** 
 312:C:/Users/Marwan/OneDrive/Documents/GitHub/3D-graphics/project2\main.cpp ****           // Left face (x = -1.0f)
 313:C:/Users/Marwan/OneDrive/Documents/GitHub/3D-graphics/project2\main.cpp ****           glColor3f(0.0f, 0.0f, 1.0f);     // Blue
 1720              		.loc 2 313 0
 1721 0fdb D9E8     		fld1
 1722 0fdd D95C2408 		fstps	8(%esp)
 1723 0fe1 D9EE     		fldz
 1724 0fe3 D95C2404 		fstps	4(%esp)
 1725 0fe7 D9EE     		fldz
 1726 0fe9 D91C24   		fstps	(%esp)
 1727 0fec E8000000 		call	_glColor3f@12
 1727      00
 1728 0ff1 83EC0C   		subl	$12, %esp
 314:C:/Users/Marwan/OneDrive/Documents/GitHub/3D-graphics/project2\main.cpp ****           glVertex3f(-1.0f,  1.0f,  1.0f);
 1729              		.loc 2 314 0
 1730 0ff4 D9E8     		fld1
 1731 0ff6 D95C2408 		fstps	8(%esp)
 1732 0ffa D9E8     		fld1
 1733 0ffc D95C2404 		fstps	4(%esp)
 1734 1000 D9E8     		fld1
 1735 1002 D9E0     		fchs
 1736 1004 D91C24   		fstps	(%esp)
 1737 1007 E8000000 		call	_glVertex3f@12
 1737      00
 1738 100c 83EC0C   		subl	$12, %esp
 315:C:/Users/Marwan/OneDrive/Documents/GitHub/3D-graphics/project2\main.cpp ****           glVertex3f(-1.0f,  1.0f, -1.0f);
 1739              		.loc 2 315 0
 1740 100f D9E8     		fld1
 1741 1011 D9E0     		fchs
 1742 1013 D95C2408 		fstps	8(%esp)
GAS LISTING C:\Users\Marwan\AppData\Local\Temp\ccZ5CEyO.s 			page 52


 1743 1017 D9E8     		fld1
 1744 1019 D95C2404 		fstps	4(%esp)
 1745 101d D9E8     		fld1
 1746 101f D9E0     		fchs
 1747 1021 D91C24   		fstps	(%esp)
 1748 1024 E8000000 		call	_glVertex3f@12
 1748      00
 1749 1029 83EC0C   		subl	$12, %esp
 316:C:/Users/Marwan/OneDrive/Documents/GitHub/3D-graphics/project2\main.cpp ****           glVertex3f(-1.0f, -1.0f, -1.0f);
 1750              		.loc 2 316 0
 1751 102c D9E8     		fld1
 1752 102e D9E0     		fchs
 1753 1030 D95C2408 		fstps	8(%esp)
 1754 1034 D9E8     		fld1
 1755 1036 D9E0     		fchs
 1756 1038 D95C2404 		fstps	4(%esp)
 1757 103c D9E8     		fld1
 1758 103e D9E0     		fchs
 1759 1040 D91C24   		fstps	(%esp)
 1760 1043 E8000000 		call	_glVertex3f@12
 1760      00
 1761 1048 83EC0C   		subl	$12, %esp
 317:C:/Users/Marwan/OneDrive/Documents/GitHub/3D-graphics/project2\main.cpp ****           glVertex3f(-1.0f, -1.0f,  1.0f);
 1762              		.loc 2 317 0
 1763 104b D9E8     		fld1
 1764 104d D95C2408 		fstps	8(%esp)
 1765 1051 D9E8     		fld1
 1766 1053 D9E0     		fchs
 1767 1055 D95C2404 		fstps	4(%esp)
 1768 1059 D9E8     		fld1
 1769 105b D9E0     		fchs
 1770 105d D91C24   		fstps	(%esp)
 1771 1060 E8000000 		call	_glVertex3f@12
 1771      00
 1772 1065 83EC0C   		subl	$12, %esp
 318:C:/Users/Marwan/OneDrive/Documents/GitHub/3D-graphics/project2\main.cpp **** 
 319:C:/Users/Marwan/OneDrive/Documents/GitHub/3D-graphics/project2\main.cpp ****           // Right face (x = 1.0f)
 320:C:/Users/Marwan/OneDrive/Documents/GitHub/3D-graphics/project2\main.cpp ****           glColor3f(1.0f, 0.0f, 1.0f);     // Magenta
 1773              		.loc 2 320 0
 1774 1068 D9E8     		fld1
 1775 106a D95C2408 		fstps	8(%esp)
 1776 106e D9EE     		fldz
 1777 1070 D95C2404 		fstps	4(%esp)
 1778 1074 D9E8     		fld1
 1779 1076 D91C24   		fstps	(%esp)
 1780 1079 E8000000 		call	_glColor3f@12
 1780      00
 1781 107e 83EC0C   		subl	$12, %esp
 321:C:/Users/Marwan/OneDrive/Documents/GitHub/3D-graphics/project2\main.cpp ****           glVertex3f(1.0f,  1.0f, -1.0f);
 1782              		.loc 2 321 0
 1783 1081 D9E8     		fld1
 1784 1083 D9E0     		fchs
 1785 1085 D95C2408 		fstps	8(%esp)
 1786 1089 D9E8     		fld1
 1787 108b D95C2404 		fstps	4(%esp)
 1788 108f D9E8     		fld1
 1789 1091 D91C24   		fstps	(%esp)
GAS LISTING C:\Users\Marwan\AppData\Local\Temp\ccZ5CEyO.s 			page 53


 1790 1094 E8000000 		call	_glVertex3f@12
 1790      00
 1791 1099 83EC0C   		subl	$12, %esp
 322:C:/Users/Marwan/OneDrive/Documents/GitHub/3D-graphics/project2\main.cpp ****           glVertex3f(1.0f,  1.0f,  1.0f);
 1792              		.loc 2 322 0
 1793 109c D9E8     		fld1
 1794 109e D95C2408 		fstps	8(%esp)
 1795 10a2 D9E8     		fld1
 1796 10a4 D95C2404 		fstps	4(%esp)
 1797 10a8 D9E8     		fld1
 1798 10aa D91C24   		fstps	(%esp)
 1799 10ad E8000000 		call	_glVertex3f@12
 1799      00
 1800 10b2 83EC0C   		subl	$12, %esp
 323:C:/Users/Marwan/OneDrive/Documents/GitHub/3D-graphics/project2\main.cpp ****           glVertex3f(1.0f, -1.0f,  1.0f);
 1801              		.loc 2 323 0
 1802 10b5 D9E8     		fld1
 1803 10b7 D95C2408 		fstps	8(%esp)
 1804 10bb D9E8     		fld1
 1805 10bd D9E0     		fchs
 1806 10bf D95C2404 		fstps	4(%esp)
 1807 10c3 D9E8     		fld1
 1808 10c5 D91C24   		fstps	(%esp)
 1809 10c8 E8000000 		call	_glVertex3f@12
 1809      00
 1810 10cd 83EC0C   		subl	$12, %esp
 324:C:/Users/Marwan/OneDrive/Documents/GitHub/3D-graphics/project2\main.cpp ****           glVertex3f(1.0f, -1.0f, -1.0f);
 1811              		.loc 2 324 0
 1812 10d0 D9E8     		fld1
 1813 10d2 D9E0     		fchs
 1814 10d4 D95C2408 		fstps	8(%esp)
 1815 10d8 D9E8     		fld1
 1816 10da D9E0     		fchs
 1817 10dc D95C2404 		fstps	4(%esp)
 1818 10e0 D9E8     		fld1
 1819 10e2 D91C24   		fstps	(%esp)
 1820 10e5 E8000000 		call	_glVertex3f@12
 1820      00
 1821 10ea 83EC0C   		subl	$12, %esp
 325:C:/Users/Marwan/OneDrive/Documents/GitHub/3D-graphics/project2\main.cpp ****             glEnd();  // End of drawing color-cube
 1822              		.loc 2 325 0
 1823 10ed E8000000 		call	_glEnd@0
 1823      00
 326:C:/Users/Marwan/OneDrive/Documents/GitHub/3D-graphics/project2\main.cpp ****             glPushMatrix();
 1824              		.loc 2 326 0
 1825 10f2 E8000000 		call	_glPushMatrix@0
 1825      00
 327:C:/Users/Marwan/OneDrive/Documents/GitHub/3D-graphics/project2\main.cpp **** ////////////////////////////////////////////////////////////////////////////////
 328:C:/Users/Marwan/OneDrive/Documents/GitHub/3D-graphics/project2\main.cpp ****     glLoadIdentity();
 1826              		.loc 2 328 0
 1827 10f7 E8000000 		call	_glLoadIdentity@0
 1827      00
 329:C:/Users/Marwan/OneDrive/Documents/GitHub/3D-graphics/project2\main.cpp ****     glPushMatrix();
 1828              		.loc 2 329 0
 1829 10fc E8000000 		call	_glPushMatrix@0
 1829      00
 330:C:/Users/Marwan/OneDrive/Documents/GitHub/3D-graphics/project2\main.cpp ****     glScalef(scale,scale,1);                 // Reset the model-view matrix
GAS LISTING C:\Users\Marwan\AppData\Local\Temp\ccZ5CEyO.s 			page 54


 1830              		.loc 2 330 0
 1831 1101 DD054000 		fldl	_scale
 1831      0000
 1832 1107 D95DF4   		fstps	-12(%ebp)
 1833 110a D945F4   		flds	-12(%ebp)
 1834 110d DD054000 		fldl	_scale
 1834      0000
 1835 1113 D95DF4   		fstps	-12(%ebp)
 1836 1116 D945F4   		flds	-12(%ebp)
 1837 1119 D9E8     		fld1
 1838 111b D95C2408 		fstps	8(%esp)
 1839 111f D9C9     		fxch	%st(1)
 1840 1121 D95C2404 		fstps	4(%esp)
 1841 1125 D91C24   		fstps	(%esp)
 1842 1128 E8000000 		call	_glScalef@12
 1842      00
 1843 112d 83EC0C   		subl	$12, %esp
 331:C:/Users/Marwan/OneDrive/Documents/GitHub/3D-graphics/project2\main.cpp ****     glTranslatef(yRotated, 1, -20.0f);  // Move left and into the screen
 1844              		.loc 2 331 0
 1845 1130 D9054800 		flds	_yRotated
 1845      0000
 1846 1136 D9052000 		flds	LC5
 1846      0000
 1847 113c D95C2408 		fstps	8(%esp)
 1848 1140 D9E8     		fld1
 1849 1142 D95C2404 		fstps	4(%esp)
 1850 1146 D91C24   		fstps	(%esp)
 1851 1149 E8000000 		call	_glTranslatef@12
 1851      00
 1852 114e 83EC0C   		subl	$12, %esp
 332:C:/Users/Marwan/OneDrive/Documents/GitHub/3D-graphics/project2\main.cpp ****     glRotatef(anglePyramid, 0.0f, 1.0f, 0.0f);  // Rotate about the (1,1,0)-axis
 1853              		.loc 2 332 0
 1854 1151 D9055000 		flds	_anglePyramid
 1854      0000
 1855 1157 D9EE     		fldz
 1856 1159 D95C240C 		fstps	12(%esp)
 1857 115d D9E8     		fld1
 1858 115f D95C2408 		fstps	8(%esp)
 1859 1163 D9EE     		fldz
 1860 1165 D95C2404 		fstps	4(%esp)
 1861 1169 D91C24   		fstps	(%esp)
 1862 116c E8000000 		call	_glRotatef@16
 1862      00
 1863 1171 83EC10   		subl	$16, %esp
 333:C:/Users/Marwan/OneDrive/Documents/GitHub/3D-graphics/project2\main.cpp ****     glBegin(GL_TRIANGLES);           // Begin drawing the pyramid with 4 triangles
 1864              		.loc 2 333 0
 1865 1174 C7042404 		movl	$4, (%esp)
 1865      000000
 1866 117b E8000000 		call	_glBegin@4
 1866      00
 1867 1180 83EC04   		subl	$4, %esp
 334:C:/Users/Marwan/OneDrive/Documents/GitHub/3D-graphics/project2\main.cpp ****       // Front
 335:C:/Users/Marwan/OneDrive/Documents/GitHub/3D-graphics/project2\main.cpp ****       glColor3f(1.0f, 0.0f, 0.0f);     // Red
 1868              		.loc 2 335 0
 1869 1183 D9EE     		fldz
 1870 1185 D95C2408 		fstps	8(%esp)
 1871 1189 D9EE     		fldz
GAS LISTING C:\Users\Marwan\AppData\Local\Temp\ccZ5CEyO.s 			page 55


 1872 118b D95C2404 		fstps	4(%esp)
 1873 118f D9E8     		fld1
 1874 1191 D91C24   		fstps	(%esp)
 1875 1194 E8000000 		call	_glColor3f@12
 1875      00
 1876 1199 83EC0C   		subl	$12, %esp
 336:C:/Users/Marwan/OneDrive/Documents/GitHub/3D-graphics/project2\main.cpp ****       glVertex3f( 0.0f, 1.0f, 0.0f);
 1877              		.loc 2 336 0
 1878 119c D9EE     		fldz
 1879 119e D95C2408 		fstps	8(%esp)
 1880 11a2 D9E8     		fld1
 1881 11a4 D95C2404 		fstps	4(%esp)
 1882 11a8 D9EE     		fldz
 1883 11aa D91C24   		fstps	(%esp)
 1884 11ad E8000000 		call	_glVertex3f@12
 1884      00
 1885 11b2 83EC0C   		subl	$12, %esp
 337:C:/Users/Marwan/OneDrive/Documents/GitHub/3D-graphics/project2\main.cpp ****       glColor3f(0.0f, 1.0f, 0.0f);     // Green
 1886              		.loc 2 337 0
 1887 11b5 D9EE     		fldz
 1888 11b7 D95C2408 		fstps	8(%esp)
 1889 11bb D9E8     		fld1
 1890 11bd D95C2404 		fstps	4(%esp)
 1891 11c1 D9EE     		fldz
 1892 11c3 D91C24   		fstps	(%esp)
 1893 11c6 E8000000 		call	_glColor3f@12
 1893      00
 1894 11cb 83EC0C   		subl	$12, %esp
 338:C:/Users/Marwan/OneDrive/Documents/GitHub/3D-graphics/project2\main.cpp ****       glVertex3f(-1.0f, -1.0f, 1.0f);
 1895              		.loc 2 338 0
 1896 11ce D9E8     		fld1
 1897 11d0 D95C2408 		fstps	8(%esp)
 1898 11d4 D9E8     		fld1
 1899 11d6 D9E0     		fchs
 1900 11d8 D95C2404 		fstps	4(%esp)
 1901 11dc D9E8     		fld1
 1902 11de D9E0     		fchs
 1903 11e0 D91C24   		fstps	(%esp)
 1904 11e3 E8000000 		call	_glVertex3f@12
 1904      00
 1905 11e8 83EC0C   		subl	$12, %esp
 339:C:/Users/Marwan/OneDrive/Documents/GitHub/3D-graphics/project2\main.cpp ****       glColor3f(0.0f, 0.0f, 1.0f);     // Blue
 1906              		.loc 2 339 0
 1907 11eb D9E8     		fld1
 1908 11ed D95C2408 		fstps	8(%esp)
 1909 11f1 D9EE     		fldz
 1910 11f3 D95C2404 		fstps	4(%esp)
 1911 11f7 D9EE     		fldz
 1912 11f9 D91C24   		fstps	(%esp)
 1913 11fc E8000000 		call	_glColor3f@12
 1913      00
 1914 1201 83EC0C   		subl	$12, %esp
 340:C:/Users/Marwan/OneDrive/Documents/GitHub/3D-graphics/project2\main.cpp ****       glVertex3f(1.0f, -1.0f, 1.0f);
 1915              		.loc 2 340 0
 1916 1204 D9E8     		fld1
 1917 1206 D95C2408 		fstps	8(%esp)
 1918 120a D9E8     		fld1
GAS LISTING C:\Users\Marwan\AppData\Local\Temp\ccZ5CEyO.s 			page 56


 1919 120c D9E0     		fchs
 1920 120e D95C2404 		fstps	4(%esp)
 1921 1212 D9E8     		fld1
 1922 1214 D91C24   		fstps	(%esp)
 1923 1217 E8000000 		call	_glVertex3f@12
 1923      00
 1924 121c 83EC0C   		subl	$12, %esp
 341:C:/Users/Marwan/OneDrive/Documents/GitHub/3D-graphics/project2\main.cpp **** 
 342:C:/Users/Marwan/OneDrive/Documents/GitHub/3D-graphics/project2\main.cpp ****       // Right
 343:C:/Users/Marwan/OneDrive/Documents/GitHub/3D-graphics/project2\main.cpp ****       glColor3f(1.0f, 0.0f, 0.0f);     // Red
 1925              		.loc 2 343 0
 1926 121f D9EE     		fldz
 1927 1221 D95C2408 		fstps	8(%esp)
 1928 1225 D9EE     		fldz
 1929 1227 D95C2404 		fstps	4(%esp)
 1930 122b D9E8     		fld1
 1931 122d D91C24   		fstps	(%esp)
 1932 1230 E8000000 		call	_glColor3f@12
 1932      00
 1933 1235 83EC0C   		subl	$12, %esp
 344:C:/Users/Marwan/OneDrive/Documents/GitHub/3D-graphics/project2\main.cpp ****       glVertex3f(0.0f, 1.0f, 0.0f);
 1934              		.loc 2 344 0
 1935 1238 D9EE     		fldz
 1936 123a D95C2408 		fstps	8(%esp)
 1937 123e D9E8     		fld1
 1938 1240 D95C2404 		fstps	4(%esp)
 1939 1244 D9EE     		fldz
 1940 1246 D91C24   		fstps	(%esp)
 1941 1249 E8000000 		call	_glVertex3f@12
 1941      00
 1942 124e 83EC0C   		subl	$12, %esp
 345:C:/Users/Marwan/OneDrive/Documents/GitHub/3D-graphics/project2\main.cpp ****       glColor3f(0.0f, 0.0f, 1.0f);     // Blue
 1943              		.loc 2 345 0
 1944 1251 D9E8     		fld1
 1945 1253 D95C2408 		fstps	8(%esp)
 1946 1257 D9EE     		fldz
 1947 1259 D95C2404 		fstps	4(%esp)
 1948 125d D9EE     		fldz
 1949 125f D91C24   		fstps	(%esp)
 1950 1262 E8000000 		call	_glColor3f@12
 1950      00
 1951 1267 83EC0C   		subl	$12, %esp
 346:C:/Users/Marwan/OneDrive/Documents/GitHub/3D-graphics/project2\main.cpp ****       glVertex3f(1.0f, -1.0f, 1.0f);
 1952              		.loc 2 346 0
 1953 126a D9E8     		fld1
 1954 126c D95C2408 		fstps	8(%esp)
 1955 1270 D9E8     		fld1
 1956 1272 D9E0     		fchs
 1957 1274 D95C2404 		fstps	4(%esp)
 1958 1278 D9E8     		fld1
 1959 127a D91C24   		fstps	(%esp)
 1960 127d E8000000 		call	_glVertex3f@12
 1960      00
 1961 1282 83EC0C   		subl	$12, %esp
 347:C:/Users/Marwan/OneDrive/Documents/GitHub/3D-graphics/project2\main.cpp ****       glColor3f(0.0f, 1.0f, 0.0f);     // Green
 1962              		.loc 2 347 0
 1963 1285 D9EE     		fldz
GAS LISTING C:\Users\Marwan\AppData\Local\Temp\ccZ5CEyO.s 			page 57


 1964 1287 D95C2408 		fstps	8(%esp)
 1965 128b D9E8     		fld1
 1966 128d D95C2404 		fstps	4(%esp)
 1967 1291 D9EE     		fldz
 1968 1293 D91C24   		fstps	(%esp)
 1969 1296 E8000000 		call	_glColor3f@12
 1969      00
 1970 129b 83EC0C   		subl	$12, %esp
 348:C:/Users/Marwan/OneDrive/Documents/GitHub/3D-graphics/project2\main.cpp ****       glVertex3f(1.0f, -1.0f, -1.0f);
 1971              		.loc 2 348 0
 1972 129e D9E8     		fld1
 1973 12a0 D9E0     		fchs
 1974 12a2 D95C2408 		fstps	8(%esp)
 1975 12a6 D9E8     		fld1
 1976 12a8 D9E0     		fchs
 1977 12aa D95C2404 		fstps	4(%esp)
 1978 12ae D9E8     		fld1
 1979 12b0 D91C24   		fstps	(%esp)
 1980 12b3 E8000000 		call	_glVertex3f@12
 1980      00
 1981 12b8 83EC0C   		subl	$12, %esp
 349:C:/Users/Marwan/OneDrive/Documents/GitHub/3D-graphics/project2\main.cpp **** 
 350:C:/Users/Marwan/OneDrive/Documents/GitHub/3D-graphics/project2\main.cpp ****       // Back
 351:C:/Users/Marwan/OneDrive/Documents/GitHub/3D-graphics/project2\main.cpp ****       glColor3f(1.0f, 0.0f, 0.0f);     // Red
 1982              		.loc 2 351 0
 1983 12bb D9EE     		fldz
 1984 12bd D95C2408 		fstps	8(%esp)
 1985 12c1 D9EE     		fldz
 1986 12c3 D95C2404 		fstps	4(%esp)
 1987 12c7 D9E8     		fld1
 1988 12c9 D91C24   		fstps	(%esp)
 1989 12cc E8000000 		call	_glColor3f@12
 1989      00
 1990 12d1 83EC0C   		subl	$12, %esp
 352:C:/Users/Marwan/OneDrive/Documents/GitHub/3D-graphics/project2\main.cpp ****       glVertex3f(0.0f, 1.0f, 0.0f);
 1991              		.loc 2 352 0
 1992 12d4 D9EE     		fldz
 1993 12d6 D95C2408 		fstps	8(%esp)
 1994 12da D9E8     		fld1
 1995 12dc D95C2404 		fstps	4(%esp)
 1996 12e0 D9EE     		fldz
 1997 12e2 D91C24   		fstps	(%esp)
 1998 12e5 E8000000 		call	_glVertex3f@12
 1998      00
 1999 12ea 83EC0C   		subl	$12, %esp
 353:C:/Users/Marwan/OneDrive/Documents/GitHub/3D-graphics/project2\main.cpp ****       glColor3f(0.0f, 1.0f, 0.0f);     // Green
 2000              		.loc 2 353 0
 2001 12ed D9EE     		fldz
 2002 12ef D95C2408 		fstps	8(%esp)
 2003 12f3 D9E8     		fld1
 2004 12f5 D95C2404 		fstps	4(%esp)
 2005 12f9 D9EE     		fldz
 2006 12fb D91C24   		fstps	(%esp)
 2007 12fe E8000000 		call	_glColor3f@12
 2007      00
 2008 1303 83EC0C   		subl	$12, %esp
 354:C:/Users/Marwan/OneDrive/Documents/GitHub/3D-graphics/project2\main.cpp ****       glVertex3f(1.0f, -1.0f, -1.0f);
GAS LISTING C:\Users\Marwan\AppData\Local\Temp\ccZ5CEyO.s 			page 58


 2009              		.loc 2 354 0
 2010 1306 D9E8     		fld1
 2011 1308 D9E0     		fchs
 2012 130a D95C2408 		fstps	8(%esp)
 2013 130e D9E8     		fld1
 2014 1310 D9E0     		fchs
 2015 1312 D95C2404 		fstps	4(%esp)
 2016 1316 D9E8     		fld1
 2017 1318 D91C24   		fstps	(%esp)
 2018 131b E8000000 		call	_glVertex3f@12
 2018      00
 2019 1320 83EC0C   		subl	$12, %esp
 355:C:/Users/Marwan/OneDrive/Documents/GitHub/3D-graphics/project2\main.cpp ****       glColor3f(0.0f, 0.0f, 1.0f);     // Blue
 2020              		.loc 2 355 0
 2021 1323 D9E8     		fld1
 2022 1325 D95C2408 		fstps	8(%esp)
 2023 1329 D9EE     		fldz
 2024 132b D95C2404 		fstps	4(%esp)
 2025 132f D9EE     		fldz
 2026 1331 D91C24   		fstps	(%esp)
 2027 1334 E8000000 		call	_glColor3f@12
 2027      00
 2028 1339 83EC0C   		subl	$12, %esp
 356:C:/Users/Marwan/OneDrive/Documents/GitHub/3D-graphics/project2\main.cpp ****       glVertex3f(-1.0f, -1.0f, -1.0f);
 2029              		.loc 2 356 0
 2030 133c D9E8     		fld1
 2031 133e D9E0     		fchs
 2032 1340 D95C2408 		fstps	8(%esp)
 2033 1344 D9E8     		fld1
 2034 1346 D9E0     		fchs
 2035 1348 D95C2404 		fstps	4(%esp)
 2036 134c D9E8     		fld1
 2037 134e D9E0     		fchs
 2038 1350 D91C24   		fstps	(%esp)
 2039 1353 E8000000 		call	_glVertex3f@12
 2039      00
 2040 1358 83EC0C   		subl	$12, %esp
 357:C:/Users/Marwan/OneDrive/Documents/GitHub/3D-graphics/project2\main.cpp **** 
 358:C:/Users/Marwan/OneDrive/Documents/GitHub/3D-graphics/project2\main.cpp ****       // Left
 359:C:/Users/Marwan/OneDrive/Documents/GitHub/3D-graphics/project2\main.cpp ****       glColor3f(1.0f,0.0f,0.0f);       // Red
 2041              		.loc 2 359 0
 2042 135b D9EE     		fldz
 2043 135d D95C2408 		fstps	8(%esp)
 2044 1361 D9EE     		fldz
 2045 1363 D95C2404 		fstps	4(%esp)
 2046 1367 D9E8     		fld1
 2047 1369 D91C24   		fstps	(%esp)
 2048 136c E8000000 		call	_glColor3f@12
 2048      00
 2049 1371 83EC0C   		subl	$12, %esp
 360:C:/Users/Marwan/OneDrive/Documents/GitHub/3D-graphics/project2\main.cpp ****       glVertex3f( 0.0f, 1.0f, 0.0f);
 2050              		.loc 2 360 0
 2051 1374 D9EE     		fldz
 2052 1376 D95C2408 		fstps	8(%esp)
 2053 137a D9E8     		fld1
 2054 137c D95C2404 		fstps	4(%esp)
 2055 1380 D9EE     		fldz
GAS LISTING C:\Users\Marwan\AppData\Local\Temp\ccZ5CEyO.s 			page 59


 2056 1382 D91C24   		fstps	(%esp)
 2057 1385 E8000000 		call	_glVertex3f@12
 2057      00
 2058 138a 83EC0C   		subl	$12, %esp
 361:C:/Users/Marwan/OneDrive/Documents/GitHub/3D-graphics/project2\main.cpp ****       glColor3f(0.0f,0.0f,1.0f);       // Blue
 2059              		.loc 2 361 0
 2060 138d D9E8     		fld1
 2061 138f D95C2408 		fstps	8(%esp)
 2062 1393 D9EE     		fldz
 2063 1395 D95C2404 		fstps	4(%esp)
 2064 1399 D9EE     		fldz
 2065 139b D91C24   		fstps	(%esp)
 2066 139e E8000000 		call	_glColor3f@12
 2066      00
 2067 13a3 83EC0C   		subl	$12, %esp
 362:C:/Users/Marwan/OneDrive/Documents/GitHub/3D-graphics/project2\main.cpp ****       glVertex3f(-1.0f,-1.0f,-1.0f);
 2068              		.loc 2 362 0
 2069 13a6 D9E8     		fld1
 2070 13a8 D9E0     		fchs
 2071 13aa D95C2408 		fstps	8(%esp)
 2072 13ae D9E8     		fld1
 2073 13b0 D9E0     		fchs
 2074 13b2 D95C2404 		fstps	4(%esp)
 2075 13b6 D9E8     		fld1
 2076 13b8 D9E0     		fchs
 2077 13ba D91C24   		fstps	(%esp)
 2078 13bd E8000000 		call	_glVertex3f@12
 2078      00
 2079 13c2 83EC0C   		subl	$12, %esp
 363:C:/Users/Marwan/OneDrive/Documents/GitHub/3D-graphics/project2\main.cpp ****       glColor3f(0.0f,1.0f,0.0f);       // Green
 2080              		.loc 2 363 0
 2081 13c5 D9EE     		fldz
 2082 13c7 D95C2408 		fstps	8(%esp)
 2083 13cb D9E8     		fld1
 2084 13cd D95C2404 		fstps	4(%esp)
 2085 13d1 D9EE     		fldz
 2086 13d3 D91C24   		fstps	(%esp)
 2087 13d6 E8000000 		call	_glColor3f@12
 2087      00
 2088 13db 83EC0C   		subl	$12, %esp
 364:C:/Users/Marwan/OneDrive/Documents/GitHub/3D-graphics/project2\main.cpp ****       glVertex3f(-1.0f,-1.0f, 1.0f);
 2089              		.loc 2 364 0
 2090 13de D9E8     		fld1
 2091 13e0 D95C2408 		fstps	8(%esp)
 2092 13e4 D9E8     		fld1
 2093 13e6 D9E0     		fchs
 2094 13e8 D95C2404 		fstps	4(%esp)
 2095 13ec D9E8     		fld1
 2096 13ee D9E0     		fchs
 2097 13f0 D91C24   		fstps	(%esp)
 2098 13f3 E8000000 		call	_glVertex3f@12
 2098      00
 2099 13f8 83EC0C   		subl	$12, %esp
 365:C:/Users/Marwan/OneDrive/Documents/GitHub/3D-graphics/project2\main.cpp ****         glEnd();   // Done drawing the pyramid
 2100              		.loc 2 365 0
 2101 13fb E8000000 		call	_glEnd@0
 2101      00
GAS LISTING C:\Users\Marwan\AppData\Local\Temp\ccZ5CEyO.s 			page 60


 366:C:/Users/Marwan/OneDrive/Documents/GitHub/3D-graphics/project2\main.cpp ****     glPushMatrix();
 2102              		.loc 2 366 0
 2103 1400 E8000000 		call	_glPushMatrix@0
 2103      00
 367:C:/Users/Marwan/OneDrive/Documents/GitHub/3D-graphics/project2\main.cpp **** 
 368:C:/Users/Marwan/OneDrive/Documents/GitHub/3D-graphics/project2\main.cpp **** ///////////////////////////////////////////////////////////////////////////////////////////////////
 369:C:/Users/Marwan/OneDrive/Documents/GitHub/3D-graphics/project2\main.cpp **** //sun
 370:C:/Users/Marwan/OneDrive/Documents/GitHub/3D-graphics/project2\main.cpp ****             glLoadIdentity();
 2104              		.loc 2 370 0
 2105 1405 E8000000 		call	_glLoadIdentity@0
 2105      00
 371:C:/Users/Marwan/OneDrive/Documents/GitHub/3D-graphics/project2\main.cpp **** 
 372:C:/Users/Marwan/OneDrive/Documents/GitHub/3D-graphics/project2\main.cpp ****             glPushMatrix();
 2106              		.loc 2 372 0
 2107 140a E8000000 		call	_glPushMatrix@0
 2107      00
 373:C:/Users/Marwan/OneDrive/Documents/GitHub/3D-graphics/project2\main.cpp ****             glColor3f(1.000, 0.647, 0.000);
 2108              		.loc 2 373 0
 2109 140f D9EE     		fldz
 2110 1411 D95C2408 		fstps	8(%esp)
 2111 1415 D9059800 		flds	LC28
 2111      0000
 2112 141b D95C2404 		fstps	4(%esp)
 2113 141f D9E8     		fld1
 2114 1421 D91C24   		fstps	(%esp)
 2115 1424 E8000000 		call	_glColor3f@12
 2115      00
 2116 1429 83EC0C   		subl	$12, %esp
 374:C:/Users/Marwan/OneDrive/Documents/GitHub/3D-graphics/project2\main.cpp ****             glTranslatef(-7.0, 6.0f, -20.0f);
 2117              		.loc 2 374 0
 2118 142c D9052000 		flds	LC5
 2118      0000
 2119 1432 D95C2408 		fstps	8(%esp)
 2120 1436 D9059C00 		flds	LC29
 2120      0000
 2121 143c D95C2404 		fstps	4(%esp)
 2122 1440 D905A000 		flds	LC30
 2122      0000
 2123 1446 D91C24   		fstps	(%esp)
 2124 1449 E8000000 		call	_glTranslatef@12
 2124      00
 2125 144e 83EC0C   		subl	$12, %esp
 375:C:/Users/Marwan/OneDrive/Documents/GitHub/3D-graphics/project2\main.cpp ****             glRotatef(anglePyramid,1,1,1);
 2126              		.loc 2 375 0
 2127 1451 D9055000 		flds	_anglePyramid
 2127      0000
 2128 1457 D9E8     		fld1
 2129 1459 D95C240C 		fstps	12(%esp)
 2130 145d D9E8     		fld1
 2131 145f D95C2408 		fstps	8(%esp)
 2132 1463 D9E8     		fld1
 2133 1465 D95C2404 		fstps	4(%esp)
 2134 1469 D91C24   		fstps	(%esp)
 2135 146c E8000000 		call	_glRotatef@16
 2135      00
 2136 1471 83EC10   		subl	$16, %esp
 376:C:/Users/Marwan/OneDrive/Documents/GitHub/3D-graphics/project2\main.cpp ****           //glScalef(2,2,2);
GAS LISTING C:\Users\Marwan\AppData\Local\Temp\ccZ5CEyO.s 			page 61


 377:C:/Users/Marwan/OneDrive/Documents/GitHub/3D-graphics/project2\main.cpp **** 
 378:C:/Users/Marwan/OneDrive/Documents/GitHub/3D-graphics/project2\main.cpp ****            //glTranslatef(-5.0, 5.0f, -20.0f);
 379:C:/Users/Marwan/OneDrive/Documents/GitHub/3D-graphics/project2\main.cpp ****             glutSolidSphere(1,20,20);
 2137              		.loc 2 379 0
 2138 1474 C744240C 		movl	$20, 12(%esp)
 2138      14000000 
 2139 147c C7442408 		movl	$20, 8(%esp)
 2139      14000000 
 2140 1484 D9E8     		fld1
 2141 1486 DD1C24   		fstpl	(%esp)
 2142 1489 E8000000 		call	_glutSolidSphere@16
 2142      00
 2143 148e 83EC10   		subl	$16, %esp
 380:C:/Users/Marwan/OneDrive/Documents/GitHub/3D-graphics/project2\main.cpp **** 
 381:C:/Users/Marwan/OneDrive/Documents/GitHub/3D-graphics/project2\main.cpp ****             glPopMatrix();
 2144              		.loc 2 381 0
 2145 1491 E8000000 		call	_glPopMatrix@0
 2145      00
 382:C:/Users/Marwan/OneDrive/Documents/GitHub/3D-graphics/project2\main.cpp **** //////////////////////////////////////////////////////////////////////////////////////////////////
 383:C:/Users/Marwan/OneDrive/Documents/GitHub/3D-graphics/project2\main.cpp **** 
 384:C:/Users/Marwan/OneDrive/Documents/GitHub/3D-graphics/project2\main.cpp ****             glLoadIdentity();
 2146              		.loc 2 384 0
 2147 1496 E8000000 		call	_glLoadIdentity@0
 2147      00
 385:C:/Users/Marwan/OneDrive/Documents/GitHub/3D-graphics/project2\main.cpp ****             glPushMatrix();  // Flat Blue Box
 2148              		.loc 2 385 0
 2149 149b E8000000 		call	_glPushMatrix@0
 2149      00
 386:C:/Users/Marwan/OneDrive/Documents/GitHub/3D-graphics/project2\main.cpp **** 
 387:C:/Users/Marwan/OneDrive/Documents/GitHub/3D-graphics/project2\main.cpp **** 
 388:C:/Users/Marwan/OneDrive/Documents/GitHub/3D-graphics/project2\main.cpp ****             glTranslatef(0.0, translateY2, -20.0f);
 2150              		.loc 2 388 0
 2151 14a0 A12C0000 		movl	_translateY2, %eax
 2151      00
 2152 14a5 8945F0   		movl	%eax, -16(%ebp)
 2153 14a8 DB45F0   		fildl	-16(%ebp)
 2154 14ab D9052000 		flds	LC5
 2154      0000
 2155 14b1 D95C2408 		fstps	8(%esp)
 2156 14b5 D95C2404 		fstps	4(%esp)
 2157 14b9 D9EE     		fldz
 2158 14bb D91C24   		fstps	(%esp)
 2159 14be E8000000 		call	_glTranslatef@12
 2159      00
 2160 14c3 83EC0C   		subl	$12, %esp
 389:C:/Users/Marwan/OneDrive/Documents/GitHub/3D-graphics/project2\main.cpp ****             //  rotate around center
 390:C:/Users/Marwan/OneDrive/Documents/GitHub/3D-graphics/project2\main.cpp ****             glRotatef(20.0, 1.0, 0.0, 0.0);
 2161              		.loc 2 390 0
 2162 14c6 D9EE     		fldz
 2163 14c8 D95C240C 		fstps	12(%esp)
 2164 14cc D9EE     		fldz
 2165 14ce D95C2408 		fstps	8(%esp)
 2166 14d2 D9E8     		fld1
 2167 14d4 D95C2404 		fstps	4(%esp)
 2168 14d8 D905A400 		flds	LC31
 2168      0000
 2169 14de D91C24   		fstps	(%esp)
GAS LISTING C:\Users\Marwan\AppData\Local\Temp\ccZ5CEyO.s 			page 62


 2170 14e1 E8000000 		call	_glRotatef@16
 2170      00
 2171 14e6 83EC10   		subl	$16, %esp
 391:C:/Users/Marwan/OneDrive/Documents/GitHub/3D-graphics/project2\main.cpp ****             glScalef(7, 1.1, 5.5); //Make the object bigger
 2172              		.loc 2 391 0
 2173 14e9 D905A800 		flds	LC32
 2173      0000
 2174 14ef D95C2408 		fstps	8(%esp)
 2175 14f3 D905AC00 		flds	LC33
 2175      0000
 2176 14f9 D95C2404 		fstps	4(%esp)
 2177 14fd D905B000 		flds	LC34
 2177      0000
 2178 1503 D91C24   		fstps	(%esp)
 2179 1506 E8000000 		call	_glScalef@12
 2179      00
 2180 150b 83EC0C   		subl	$12, %esp
 392:C:/Users/Marwan/OneDrive/Documents/GitHub/3D-graphics/project2\main.cpp ****             glColor3f(0.4, 0.5, 1.0); //change the color of the object
 2181              		.loc 2 392 0
 2182 150e D9E8     		fld1
 2183 1510 D95C2408 		fstps	8(%esp)
 2184 1514 D9052C00 		flds	LC10
 2184      0000
 2185 151a D95C2404 		fstps	4(%esp)
 2186 151e D905B400 		flds	LC35
 2186      0000
 2187 1524 D91C24   		fstps	(%esp)
 2188 1527 E8000000 		call	_glColor3f@12
 2188      00
 2189 152c 83EC0C   		subl	$12, %esp
 393:C:/Users/Marwan/OneDrive/Documents/GitHub/3D-graphics/project2\main.cpp **** 
 394:C:/Users/Marwan/OneDrive/Documents/GitHub/3D-graphics/project2\main.cpp ****             glutSolidCube(2.0); // draw Flat Blue Box
 2190              		.loc 2 394 0
 2191 152f DD053800 		fldl	LC12
 2191      0000
 2192 1535 DD1C24   		fstpl	(%esp)
 2193 1538 E8000000 		call	_glutSolidCube@8
 2193      00
 2194 153d 83EC08   		subl	$8, %esp
 395:C:/Users/Marwan/OneDrive/Documents/GitHub/3D-graphics/project2\main.cpp **** 
 396:C:/Users/Marwan/OneDrive/Documents/GitHub/3D-graphics/project2\main.cpp ****             glPopMatrix();
 2195              		.loc 2 396 0
 2196 1540 E8000000 		call	_glPopMatrix@0
 2196      00
 397:C:/Users/Marwan/OneDrive/Documents/GitHub/3D-graphics/project2\main.cpp **** ////////////////////////////////////////////////////////////////////////////////
 398:C:/Users/Marwan/OneDrive/Documents/GitHub/3D-graphics/project2\main.cpp ****         glLoadIdentity();
 2197              		.loc 2 398 0
 2198 1545 E8000000 		call	_glLoadIdentity@0
 2198      00
 399:C:/Users/Marwan/OneDrive/Documents/GitHub/3D-graphics/project2\main.cpp ****             glPushMatrix();  // Flat Blue Box
 2199              		.loc 2 399 0
 2200 154a E8000000 		call	_glPushMatrix@0
 2200      00
 400:C:/Users/Marwan/OneDrive/Documents/GitHub/3D-graphics/project2\main.cpp **** 
 401:C:/Users/Marwan/OneDrive/Documents/GitHub/3D-graphics/project2\main.cpp ****             glTranslatef(0.0, translateY2+4, -20.0f);
 2201              		.loc 2 401 0
 2202 154f A12C0000 		movl	_translateY2, %eax
GAS LISTING C:\Users\Marwan\AppData\Local\Temp\ccZ5CEyO.s 			page 63


 2202      00
 2203 1554 83C004   		addl	$4, %eax
 2204 1557 8945F0   		movl	%eax, -16(%ebp)
 2205 155a DB45F0   		fildl	-16(%ebp)
 2206 155d D9052000 		flds	LC5
 2206      0000
 2207 1563 D95C2408 		fstps	8(%esp)
 2208 1567 D95C2404 		fstps	4(%esp)
 2209 156b D9EE     		fldz
 2210 156d D91C24   		fstps	(%esp)
 2211 1570 E8000000 		call	_glTranslatef@12
 2211      00
 2212 1575 83EC0C   		subl	$12, %esp
 402:C:/Users/Marwan/OneDrive/Documents/GitHub/3D-graphics/project2\main.cpp ****             //  rotate around center
 403:C:/Users/Marwan/OneDrive/Documents/GitHub/3D-graphics/project2\main.cpp ****             glRotatef(40.0, 1.0, 0.0, 0.0);
 2213              		.loc 2 403 0
 2214 1578 D9EE     		fldz
 2215 157a D95C240C 		fstps	12(%esp)
 2216 157e D9EE     		fldz
 2217 1580 D95C2408 		fstps	8(%esp)
 2218 1584 D9E8     		fld1
 2219 1586 D95C2404 		fstps	4(%esp)
 2220 158a D905B800 		flds	LC36
 2220      0000
 2221 1590 D91C24   		fstps	(%esp)
 2222 1593 E8000000 		call	_glRotatef@16
 2222      00
 2223 1598 83EC10   		subl	$16, %esp
 404:C:/Users/Marwan/OneDrive/Documents/GitHub/3D-graphics/project2\main.cpp ****             glScalef(7, 0.6, 3); //Make the object bigger
 2224              		.loc 2 404 0
 2225 159b D905BC00 		flds	LC37
 2225      0000
 2226 15a1 D95C2408 		fstps	8(%esp)
 2227 15a5 D905C000 		flds	LC38
 2227      0000
 2228 15ab D95C2404 		fstps	4(%esp)
 2229 15af D905B000 		flds	LC34
 2229      0000
 2230 15b5 D91C24   		fstps	(%esp)
 2231 15b8 E8000000 		call	_glScalef@12
 2231      00
 2232 15bd 83EC0C   		subl	$12, %esp
 405:C:/Users/Marwan/OneDrive/Documents/GitHub/3D-graphics/project2\main.cpp ****             glColor3f(0.000, 0.392, 0.000); //change the color of the object
 2233              		.loc 2 405 0
 2234 15c0 D9EE     		fldz
 2235 15c2 D95C2408 		fstps	8(%esp)
 2236 15c6 D905C400 		flds	LC39
 2236      0000
 2237 15cc D95C2404 		fstps	4(%esp)
 2238 15d0 D9EE     		fldz
 2239 15d2 D91C24   		fstps	(%esp)
 2240 15d5 E8000000 		call	_glColor3f@12
 2240      00
 2241 15da 83EC0C   		subl	$12, %esp
 406:C:/Users/Marwan/OneDrive/Documents/GitHub/3D-graphics/project2\main.cpp **** 
 407:C:/Users/Marwan/OneDrive/Documents/GitHub/3D-graphics/project2\main.cpp ****             glutSolidCube(3.0); // draw Flat Blue Box
 2242              		.loc 2 407 0
GAS LISTING C:\Users\Marwan\AppData\Local\Temp\ccZ5CEyO.s 			page 64


 2243 15dd DD05C800 		fldl	LC40
 2243      0000
 2244 15e3 DD1C24   		fstpl	(%esp)
 2245 15e6 E8000000 		call	_glutSolidCube@8
 2245      00
 2246 15eb 83EC08   		subl	$8, %esp
 408:C:/Users/Marwan/OneDrive/Documents/GitHub/3D-graphics/project2\main.cpp **** 
 409:C:/Users/Marwan/OneDrive/Documents/GitHub/3D-graphics/project2\main.cpp ****             glPopMatrix();
 2247              		.loc 2 409 0
 2248 15ee E8000000 		call	_glPopMatrix@0
 2248      00
 410:C:/Users/Marwan/OneDrive/Documents/GitHub/3D-graphics/project2\main.cpp **** /////////////////////////////////////////////////////////////////////////////////////
 411:C:/Users/Marwan/OneDrive/Documents/GitHub/3D-graphics/project2\main.cpp ****    glLoadIdentity();
 2249              		.loc 2 411 0
 2250 15f3 E8000000 		call	_glLoadIdentity@0
 2250      00
 412:C:/Users/Marwan/OneDrive/Documents/GitHub/3D-graphics/project2\main.cpp ****     tree(0,0,0);
 2251              		.loc 2 412 0
 2252 15f8 C7442408 		movl	$0, 8(%esp)
 2252      00000000 
 2253 1600 C7442404 		movl	$0, 4(%esp)
 2253      00000000 
 2254 1608 C7042400 		movl	$0, (%esp)
 2254      000000
 2255 160f E8FCF2FF 		call	__Z4treeiii
 2255      FF
 413:C:/Users/Marwan/OneDrive/Documents/GitHub/3D-graphics/project2\main.cpp ****     tree(4,-2,6);
 2256              		.loc 2 413 0
 2257 1614 C7442408 		movl	$6, 8(%esp)
 2257      06000000 
 2258 161c C7442404 		movl	$-2, 4(%esp)
 2258      FEFFFFFF 
 2259 1624 C7042404 		movl	$4, (%esp)
 2259      000000
 2260 162b E8E0F2FF 		call	__Z4treeiii
 2260      FF
 414:C:/Users/Marwan/OneDrive/Documents/GitHub/3D-graphics/project2\main.cpp ****     tree(-1,-1,5);
 2261              		.loc 2 414 0
 2262 1630 C7442408 		movl	$5, 8(%esp)
 2262      05000000 
 2263 1638 C7442404 		movl	$-1, 4(%esp)
 2263      FFFFFFFF 
 2264 1640 C70424FF 		movl	$-1, (%esp)
 2264      FFFFFF
 2265 1647 E8C4F2FF 		call	__Z4treeiii
 2265      FF
 415:C:/Users/Marwan/OneDrive/Documents/GitHub/3D-graphics/project2\main.cpp **** //    tree(4,0);
 416:C:/Users/Marwan/OneDrive/Documents/GitHub/3D-graphics/project2\main.cpp **** //    tree(-2,1);
 417:C:/Users/Marwan/OneDrive/Documents/GitHub/3D-graphics/project2\main.cpp **** //    tree(-2,-2);
 418:C:/Users/Marwan/OneDrive/Documents/GitHub/3D-graphics/project2\main.cpp **** //    tree(6,0);
 419:C:/Users/Marwan/OneDrive/Documents/GitHub/3D-graphics/project2\main.cpp **** //    tree(7,1);
 420:C:/Users/Marwan/OneDrive/Documents/GitHub/3D-graphics/project2\main.cpp ****         /////////////////////////////////////////////////
 421:C:/Users/Marwan/OneDrive/Documents/GitHub/3D-graphics/project2\main.cpp **** 
 422:C:/Users/Marwan/OneDrive/Documents/GitHub/3D-graphics/project2\main.cpp **** 
 423:C:/Users/Marwan/OneDrive/Documents/GitHub/3D-graphics/project2\main.cpp ****     glLoadIdentity();//clowd
 2266              		.loc 2 423 0
 2267 164c E8000000 		call	_glLoadIdentity@0
GAS LISTING C:\Users\Marwan\AppData\Local\Temp\ccZ5CEyO.s 			page 65


 2267      00
 424:C:/Users/Marwan/OneDrive/Documents/GitHub/3D-graphics/project2\main.cpp ****         glColor3d(1,1,1);
 2268              		.loc 2 424 0
 2269 1651 D9E8     		fld1
 2270 1653 DD5C2410 		fstpl	16(%esp)
 2271 1657 D9E8     		fld1
 2272 1659 DD5C2408 		fstpl	8(%esp)
 2273 165d D9E8     		fld1
 2274 165f DD1C24   		fstpl	(%esp)
 2275 1662 E8000000 		call	_glColor3d@24
 2275      00
 2276 1667 83EC18   		subl	$24, %esp
 425:C:/Users/Marwan/OneDrive/Documents/GitHub/3D-graphics/project2\main.cpp ****         glPushMatrix();
 2277              		.loc 2 425 0
 2278 166a E8000000 		call	_glPushMatrix@0
 2278      00
 426:C:/Users/Marwan/OneDrive/Documents/GitHub/3D-graphics/project2\main.cpp ****         glTranslated(3.4+x,6,-20);
 2279              		.loc 2 426 0
 2280 166f D9052C00 		flds	_x
 2280      0000
 2281 1675 DD05D000 		fldl	LC41
 2281      0000
 2282 167b DEC1     		faddp	%st, %st(1)
 2283 167d DD05D800 		fldl	LC42
 2283      0000
 2284 1683 DD5C2410 		fstpl	16(%esp)
 2285 1687 DD05E000 		fldl	LC43
 2285      0000
 2286 168d DD5C2408 		fstpl	8(%esp)
 2287 1691 DD1C24   		fstpl	(%esp)
 2288 1694 E8000000 		call	_glTranslated@24
 2288      00
 2289 1699 83EC18   		subl	$24, %esp
 427:C:/Users/Marwan/OneDrive/Documents/GitHub/3D-graphics/project2\main.cpp ****         glRotated(60,1,0,0);
 2290              		.loc 2 427 0
 2291 169c D9EE     		fldz
 2292 169e DD5C2418 		fstpl	24(%esp)
 2293 16a2 D9EE     		fldz
 2294 16a4 DD5C2410 		fstpl	16(%esp)
 2295 16a8 D9E8     		fld1
 2296 16aa DD5C2408 		fstpl	8(%esp)
 2297 16ae DD05E800 		fldl	LC44
 2297      0000
 2298 16b4 DD1C24   		fstpl	(%esp)
 2299 16b7 E8000000 		call	_glRotated@32
 2299      00
 2300 16bc 83EC20   		subl	$32, %esp
 428:C:/Users/Marwan/OneDrive/Documents/GitHub/3D-graphics/project2\main.cpp ****         glutSolidSphere(.4,20,20);
 2301              		.loc 2 428 0
 2302 16bf C744240C 		movl	$20, 12(%esp)
 2302      14000000 
 2303 16c7 C7442408 		movl	$20, 8(%esp)
 2303      14000000 
 2304 16cf DD05F000 		fldl	LC45
 2304      0000
 2305 16d5 DD1C24   		fstpl	(%esp)
 2306 16d8 E8000000 		call	_glutSolidSphere@16
GAS LISTING C:\Users\Marwan\AppData\Local\Temp\ccZ5CEyO.s 			page 66


 2306      00
 2307 16dd 83EC10   		subl	$16, %esp
 429:C:/Users/Marwan/OneDrive/Documents/GitHub/3D-graphics/project2\main.cpp ****         glPopMatrix();
 2308              		.loc 2 429 0
 2309 16e0 E8000000 		call	_glPopMatrix@0
 2309      00
 430:C:/Users/Marwan/OneDrive/Documents/GitHub/3D-graphics/project2\main.cpp ****         glColor3d(1,1,1);
 2310              		.loc 2 430 0
 2311 16e5 D9E8     		fld1
 2312 16e7 DD5C2410 		fstpl	16(%esp)
 2313 16eb D9E8     		fld1
 2314 16ed DD5C2408 		fstpl	8(%esp)
 2315 16f1 D9E8     		fld1
 2316 16f3 DD1C24   		fstpl	(%esp)
 2317 16f6 E8000000 		call	_glColor3d@24
 2317      00
 2318 16fb 83EC18   		subl	$24, %esp
 431:C:/Users/Marwan/OneDrive/Documents/GitHub/3D-graphics/project2\main.cpp ****         glPushMatrix();
 2319              		.loc 2 431 0
 2320 16fe E8000000 		call	_glPushMatrix@0
 2320      00
 432:C:/Users/Marwan/OneDrive/Documents/GitHub/3D-graphics/project2\main.cpp ****         glTranslated(3.2+x,5.9,-20.1);
 2321              		.loc 2 432 0
 2322 1703 D9052C00 		flds	_x
 2322      0000
 2323 1709 DD05F800 		fldl	LC46
 2323      0000
 2324 170f DEC1     		faddp	%st, %st(1)
 2325 1711 DD050001 		fldl	LC47
 2325      0000
 2326 1717 DD5C2410 		fstpl	16(%esp)
 2327 171b DD050801 		fldl	LC48
 2327      0000
 2328 1721 DD5C2408 		fstpl	8(%esp)
 2329 1725 DD1C24   		fstpl	(%esp)
 2330 1728 E8000000 		call	_glTranslated@24
 2330      00
 2331 172d 83EC18   		subl	$24, %esp
 433:C:/Users/Marwan/OneDrive/Documents/GitHub/3D-graphics/project2\main.cpp ****         glRotated(60,1,0,0);
 2332              		.loc 2 433 0
 2333 1730 D9EE     		fldz
 2334 1732 DD5C2418 		fstpl	24(%esp)
 2335 1736 D9EE     		fldz
 2336 1738 DD5C2410 		fstpl	16(%esp)
 2337 173c D9E8     		fld1
 2338 173e DD5C2408 		fstpl	8(%esp)
 2339 1742 DD05E800 		fldl	LC44
 2339      0000
 2340 1748 DD1C24   		fstpl	(%esp)
 2341 174b E8000000 		call	_glRotated@32
 2341      00
 2342 1750 83EC20   		subl	$32, %esp
 434:C:/Users/Marwan/OneDrive/Documents/GitHub/3D-graphics/project2\main.cpp ****         glutSolidSphere(.4,20,20);
 2343              		.loc 2 434 0
 2344 1753 C744240C 		movl	$20, 12(%esp)
 2344      14000000 
 2345 175b C7442408 		movl	$20, 8(%esp)
GAS LISTING C:\Users\Marwan\AppData\Local\Temp\ccZ5CEyO.s 			page 67


 2345      14000000 
 2346 1763 DD05F000 		fldl	LC45
 2346      0000
 2347 1769 DD1C24   		fstpl	(%esp)
 2348 176c E8000000 		call	_glutSolidSphere@16
 2348      00
 2349 1771 83EC10   		subl	$16, %esp
 435:C:/Users/Marwan/OneDrive/Documents/GitHub/3D-graphics/project2\main.cpp ****         glPopMatrix();
 2350              		.loc 2 435 0
 2351 1774 E8000000 		call	_glPopMatrix@0
 2351      00
 436:C:/Users/Marwan/OneDrive/Documents/GitHub/3D-graphics/project2\main.cpp ****         glColor3d(1,1,1);
 2352              		.loc 2 436 0
 2353 1779 D9E8     		fld1
 2354 177b DD5C2410 		fstpl	16(%esp)
 2355 177f D9E8     		fld1
 2356 1781 DD5C2408 		fstpl	8(%esp)
 2357 1785 D9E8     		fld1
 2358 1787 DD1C24   		fstpl	(%esp)
 2359 178a E8000000 		call	_glColor3d@24
 2359      00
 2360 178f 83EC18   		subl	$24, %esp
 437:C:/Users/Marwan/OneDrive/Documents/GitHub/3D-graphics/project2\main.cpp ****         glPushMatrix();
 2361              		.loc 2 437 0
 2362 1792 E8000000 		call	_glPushMatrix@0
 2362      00
 438:C:/Users/Marwan/OneDrive/Documents/GitHub/3D-graphics/project2\main.cpp ****         glTranslated(3.2+x,6.1,-19.9);
 2363              		.loc 2 438 0
 2364 1797 D9052C00 		flds	_x
 2364      0000
 2365 179d DD05F800 		fldl	LC46
 2365      0000
 2366 17a3 DEC1     		faddp	%st, %st(1)
 2367 17a5 DD051001 		fldl	LC49
 2367      0000
 2368 17ab DD5C2410 		fstpl	16(%esp)
 2369 17af DD051801 		fldl	LC50
 2369      0000
 2370 17b5 DD5C2408 		fstpl	8(%esp)
 2371 17b9 DD1C24   		fstpl	(%esp)
 2372 17bc E8000000 		call	_glTranslated@24
 2372      00
 2373 17c1 83EC18   		subl	$24, %esp
 439:C:/Users/Marwan/OneDrive/Documents/GitHub/3D-graphics/project2\main.cpp ****         glRotated(60,1,0,0);
 2374              		.loc 2 439 0
 2375 17c4 D9EE     		fldz
 2376 17c6 DD5C2418 		fstpl	24(%esp)
 2377 17ca D9EE     		fldz
 2378 17cc DD5C2410 		fstpl	16(%esp)
 2379 17d0 D9E8     		fld1
 2380 17d2 DD5C2408 		fstpl	8(%esp)
 2381 17d6 DD05E800 		fldl	LC44
 2381      0000
 2382 17dc DD1C24   		fstpl	(%esp)
 2383 17df E8000000 		call	_glRotated@32
 2383      00
 2384 17e4 83EC20   		subl	$32, %esp
GAS LISTING C:\Users\Marwan\AppData\Local\Temp\ccZ5CEyO.s 			page 68


 440:C:/Users/Marwan/OneDrive/Documents/GitHub/3D-graphics/project2\main.cpp ****         glutSolidSphere(.4,20,20);
 2385              		.loc 2 440 0
 2386 17e7 C744240C 		movl	$20, 12(%esp)
 2386      14000000 
 2387 17ef C7442408 		movl	$20, 8(%esp)
 2387      14000000 
 2388 17f7 DD05F000 		fldl	LC45
 2388      0000
 2389 17fd DD1C24   		fstpl	(%esp)
 2390 1800 E8000000 		call	_glutSolidSphere@16
 2390      00
 2391 1805 83EC10   		subl	$16, %esp
 441:C:/Users/Marwan/OneDrive/Documents/GitHub/3D-graphics/project2\main.cpp ****         glPopMatrix();
 2392              		.loc 2 441 0
 2393 1808 E8000000 		call	_glPopMatrix@0
 2393      00
 442:C:/Users/Marwan/OneDrive/Documents/GitHub/3D-graphics/project2\main.cpp ****         glColor3d(1,1,1);
 2394              		.loc 2 442 0
 2395 180d D9E8     		fld1
 2396 180f DD5C2410 		fstpl	16(%esp)
 2397 1813 D9E8     		fld1
 2398 1815 DD5C2408 		fstpl	8(%esp)
 2399 1819 D9E8     		fld1
 2400 181b DD1C24   		fstpl	(%esp)
 2401 181e E8000000 		call	_glColor3d@24
 2401      00
 2402 1823 83EC18   		subl	$24, %esp
 443:C:/Users/Marwan/OneDrive/Documents/GitHub/3D-graphics/project2\main.cpp ****         glPushMatrix();
 2403              		.loc 2 443 0
 2404 1826 E8000000 		call	_glPushMatrix@0
 2404      00
 444:C:/Users/Marwan/OneDrive/Documents/GitHub/3D-graphics/project2\main.cpp ****         glTranslated(3+x,6,-20);
 2405              		.loc 2 444 0
 2406 182b D9052C00 		flds	_x
 2406      0000
 2407 1831 D905BC00 		flds	LC37
 2407      0000
 2408 1837 DEC1     		faddp	%st, %st(1)
 2409 1839 DD05D800 		fldl	LC42
 2409      0000
 2410 183f DD5C2410 		fstpl	16(%esp)
 2411 1843 DD05E000 		fldl	LC43
 2411      0000
 2412 1849 DD5C2408 		fstpl	8(%esp)
 2413 184d DD1C24   		fstpl	(%esp)
 2414 1850 E8000000 		call	_glTranslated@24
 2414      00
 2415 1855 83EC18   		subl	$24, %esp
 445:C:/Users/Marwan/OneDrive/Documents/GitHub/3D-graphics/project2\main.cpp ****         glRotated(60,1,0,0);
 2416              		.loc 2 445 0
 2417 1858 D9EE     		fldz
 2418 185a DD5C2418 		fstpl	24(%esp)
 2419 185e D9EE     		fldz
 2420 1860 DD5C2410 		fstpl	16(%esp)
 2421 1864 D9E8     		fld1
 2422 1866 DD5C2408 		fstpl	8(%esp)
 2423 186a DD05E800 		fldl	LC44
GAS LISTING C:\Users\Marwan\AppData\Local\Temp\ccZ5CEyO.s 			page 69


 2423      0000
 2424 1870 DD1C24   		fstpl	(%esp)
 2425 1873 E8000000 		call	_glRotated@32
 2425      00
 2426 1878 83EC20   		subl	$32, %esp
 446:C:/Users/Marwan/OneDrive/Documents/GitHub/3D-graphics/project2\main.cpp ****         glutSolidSphere(.4,20,20);
 2427              		.loc 2 446 0
 2428 187b C744240C 		movl	$20, 12(%esp)
 2428      14000000 
 2429 1883 C7442408 		movl	$20, 8(%esp)
 2429      14000000 
 2430 188b DD05F000 		fldl	LC45
 2430      0000
 2431 1891 DD1C24   		fstpl	(%esp)
 2432 1894 E8000000 		call	_glutSolidSphere@16
 2432      00
 2433 1899 83EC10   		subl	$16, %esp
 447:C:/Users/Marwan/OneDrive/Documents/GitHub/3D-graphics/project2\main.cpp ****         glPopMatrix();
 2434              		.loc 2 447 0
 2435 189c E8000000 		call	_glPopMatrix@0
 2435      00
 448:C:/Users/Marwan/OneDrive/Documents/GitHub/3D-graphics/project2\main.cpp **** 
 449:C:/Users/Marwan/OneDrive/Documents/GitHub/3D-graphics/project2\main.cpp **** 
 450:C:/Users/Marwan/OneDrive/Documents/GitHub/3D-graphics/project2\main.cpp ****         /////////////////////////////////////////////////////
 451:C:/Users/Marwan/OneDrive/Documents/GitHub/3D-graphics/project2\main.cpp ****         //house
 452:C:/Users/Marwan/OneDrive/Documents/GitHub/3D-graphics/project2\main.cpp **** 
 453:C:/Users/Marwan/OneDrive/Documents/GitHub/3D-graphics/project2\main.cpp ****             glLoadIdentity();
 2436              		.loc 2 453 0
 2437 18a1 E8000000 		call	_glLoadIdentity@0
 2437      00
 454:C:/Users/Marwan/OneDrive/Documents/GitHub/3D-graphics/project2\main.cpp ****             glPushMatrix();  // building
 2438              		.loc 2 454 0
 2439 18a6 E8000000 		call	_glPushMatrix@0
 2439      00
 455:C:/Users/Marwan/OneDrive/Documents/GitHub/3D-graphics/project2\main.cpp **** 
 456:C:/Users/Marwan/OneDrive/Documents/GitHub/3D-graphics/project2\main.cpp ****             glTranslatef(3, 1, -17.0f);
 2440              		.loc 2 456 0
 2441 18ab D9052001 		flds	LC51
 2441      0000
 2442 18b1 D95C2408 		fstps	8(%esp)
 2443 18b5 D9E8     		fld1
 2444 18b7 D95C2404 		fstps	4(%esp)
 2445 18bb D905BC00 		flds	LC37
 2445      0000
 2446 18c1 D91C24   		fstps	(%esp)
 2447 18c4 E8000000 		call	_glTranslatef@12
 2447      00
 2448 18c9 83EC0C   		subl	$12, %esp
 457:C:/Users/Marwan/OneDrive/Documents/GitHub/3D-graphics/project2\main.cpp ****             //  rotate around center
 458:C:/Users/Marwan/OneDrive/Documents/GitHub/3D-graphics/project2\main.cpp ****             glRotatef(-35.0, -0.4, 1.0, 0.1);
 2449              		.loc 2 458 0
 2450 18cc D9052401 		flds	LC52
 2450      0000
 2451 18d2 D95C240C 		fstps	12(%esp)
 2452 18d6 D9E8     		fld1
 2453 18d8 D95C2408 		fstps	8(%esp)
 2454 18dc D9052801 		flds	LC53
GAS LISTING C:\Users\Marwan\AppData\Local\Temp\ccZ5CEyO.s 			page 70


 2454      0000
 2455 18e2 D95C2404 		fstps	4(%esp)
 2456 18e6 D9052C01 		flds	LC54
 2456      0000
 2457 18ec D91C24   		fstps	(%esp)
 2458 18ef E8000000 		call	_glRotatef@16
 2458      00
 2459 18f4 83EC10   		subl	$16, %esp
 459:C:/Users/Marwan/OneDrive/Documents/GitHub/3D-graphics/project2\main.cpp **** 
 460:C:/Users/Marwan/OneDrive/Documents/GitHub/3D-graphics/project2\main.cpp ****             glScalef(0.8, 0.8, 0.8); //Make the object bigger
 2460              		.loc 2 460 0
 2461 18f7 D9053001 		flds	LC55
 2461      0000
 2462 18fd D95C2408 		fstps	8(%esp)
 2463 1901 D9053001 		flds	LC55
 2463      0000
 2464 1907 D95C2404 		fstps	4(%esp)
 2465 190b D9053001 		flds	LC55
 2465      0000
 2466 1911 D91C24   		fstps	(%esp)
 2467 1914 E8000000 		call	_glScalef@12
 2467      00
 2468 1919 83EC0C   		subl	$12, %esp
 461:C:/Users/Marwan/OneDrive/Documents/GitHub/3D-graphics/project2\main.cpp ****             glColor3f(1,0,1); //change the color of the object
 2469              		.loc 2 461 0
 2470 191c D9E8     		fld1
 2471 191e D95C2408 		fstps	8(%esp)
 2472 1922 D9EE     		fldz
 2473 1924 D95C2404 		fstps	4(%esp)
 2474 1928 D9E8     		fld1
 2475 192a D91C24   		fstps	(%esp)
 2476 192d E8000000 		call	_glColor3f@12
 2476      00
 2477 1932 83EC0C   		subl	$12, %esp
 462:C:/Users/Marwan/OneDrive/Documents/GitHub/3D-graphics/project2\main.cpp **** 
 463:C:/Users/Marwan/OneDrive/Documents/GitHub/3D-graphics/project2\main.cpp ****             glutSolidCube(3.0); // draw Flat Blue Box
 2478              		.loc 2 463 0
 2479 1935 DD05C800 		fldl	LC40
 2479      0000
 2480 193b DD1C24   		fstpl	(%esp)
 2481 193e E8000000 		call	_glutSolidCube@8
 2481      00
 2482 1943 83EC08   		subl	$8, %esp
 464:C:/Users/Marwan/OneDrive/Documents/GitHub/3D-graphics/project2\main.cpp **** 
 465:C:/Users/Marwan/OneDrive/Documents/GitHub/3D-graphics/project2\main.cpp ****             glPopMatrix();
 2483              		.loc 2 465 0
 2484 1946 E8000000 		call	_glPopMatrix@0
 2484      00
 466:C:/Users/Marwan/OneDrive/Documents/GitHub/3D-graphics/project2\main.cpp **** 
 467:C:/Users/Marwan/OneDrive/Documents/GitHub/3D-graphics/project2\main.cpp ****             glPushMatrix();  // window r
 2485              		.loc 2 467 0
 2486 194b E8000000 		call	_glPushMatrix@0
 2486      00
 468:C:/Users/Marwan/OneDrive/Documents/GitHub/3D-graphics/project2\main.cpp **** 
 469:C:/Users/Marwan/OneDrive/Documents/GitHub/3D-graphics/project2\main.cpp ****             glTranslatef(3, 1.2, -15.5f);
 2487              		.loc 2 469 0
 2488 1950 D9053401 		flds	LC56
GAS LISTING C:\Users\Marwan\AppData\Local\Temp\ccZ5CEyO.s 			page 71


 2488      0000
 2489 1956 D95C2408 		fstps	8(%esp)
 2490 195a D9053801 		flds	LC57
 2490      0000
 2491 1960 D95C2404 		fstps	4(%esp)
 2492 1964 D905BC00 		flds	LC37
 2492      0000
 2493 196a D91C24   		fstps	(%esp)
 2494 196d E8000000 		call	_glTranslatef@12
 2494      00
 2495 1972 83EC0C   		subl	$12, %esp
 470:C:/Users/Marwan/OneDrive/Documents/GitHub/3D-graphics/project2\main.cpp ****             //  rotate around center
 471:C:/Users/Marwan/OneDrive/Documents/GitHub/3D-graphics/project2\main.cpp ****             glRotatef(-35.0, -0.4, 1.0, 0.1);
 2496              		.loc 2 471 0
 2497 1975 D9052401 		flds	LC52
 2497      0000
 2498 197b D95C240C 		fstps	12(%esp)
 2499 197f D9E8     		fld1
 2500 1981 D95C2408 		fstps	8(%esp)
 2501 1985 D9052801 		flds	LC53
 2501      0000
 2502 198b D95C2404 		fstps	4(%esp)
 2503 198f D9052C01 		flds	LC54
 2503      0000
 2504 1995 D91C24   		fstps	(%esp)
 2505 1998 E8000000 		call	_glRotatef@16
 2505      00
 2506 199d 83EC10   		subl	$16, %esp
 472:C:/Users/Marwan/OneDrive/Documents/GitHub/3D-graphics/project2\main.cpp **** 
 473:C:/Users/Marwan/OneDrive/Documents/GitHub/3D-graphics/project2\main.cpp ****             glScalef(0.8, 0.8, 0.8); //Make the object bigger
 2507              		.loc 2 473 0
 2508 19a0 D9053001 		flds	LC55
 2508      0000
 2509 19a6 D95C2408 		fstps	8(%esp)
 2510 19aa D9053001 		flds	LC55
 2510      0000
 2511 19b0 D95C2404 		fstps	4(%esp)
 2512 19b4 D9053001 		flds	LC55
 2512      0000
 2513 19ba D91C24   		fstps	(%esp)
 2514 19bd E8000000 		call	_glScalef@12
 2514      00
 2515 19c2 83EC0C   		subl	$12, %esp
 474:C:/Users/Marwan/OneDrive/Documents/GitHub/3D-graphics/project2\main.cpp ****             glColor3f(0,0,0); //change the color of the object
 2516              		.loc 2 474 0
 2517 19c5 D9EE     		fldz
 2518 19c7 D95C2408 		fstps	8(%esp)
 2519 19cb D9EE     		fldz
 2520 19cd D95C2404 		fstps	4(%esp)
 2521 19d1 D9EE     		fldz
 2522 19d3 D91C24   		fstps	(%esp)
 2523 19d6 E8000000 		call	_glColor3f@12
 2523      00
 2524 19db 83EC0C   		subl	$12, %esp
 475:C:/Users/Marwan/OneDrive/Documents/GitHub/3D-graphics/project2\main.cpp **** 
 476:C:/Users/Marwan/OneDrive/Documents/GitHub/3D-graphics/project2\main.cpp ****             glutSolidCube(0.8); // draw Flat Blue Box
 2525              		.loc 2 476 0
GAS LISTING C:\Users\Marwan\AppData\Local\Temp\ccZ5CEyO.s 			page 72


 2526 19de DD054001 		fldl	LC58
 2526      0000
 2527 19e4 DD1C24   		fstpl	(%esp)
 2528 19e7 E8000000 		call	_glutSolidCube@8
 2528      00
 2529 19ec 83EC08   		subl	$8, %esp
 477:C:/Users/Marwan/OneDrive/Documents/GitHub/3D-graphics/project2\main.cpp **** 
 478:C:/Users/Marwan/OneDrive/Documents/GitHub/3D-graphics/project2\main.cpp ****             glPopMatrix();
 2530              		.loc 2 478 0
 2531 19ef E8000000 		call	_glPopMatrix@0
 2531      00
 479:C:/Users/Marwan/OneDrive/Documents/GitHub/3D-graphics/project2\main.cpp **** 
 480:C:/Users/Marwan/OneDrive/Documents/GitHub/3D-graphics/project2\main.cpp ****             glPushMatrix();  // window l
 2532              		.loc 2 480 0
 2533 19f4 E8000000 		call	_glPushMatrix@0
 2533      00
 481:C:/Users/Marwan/OneDrive/Documents/GitHub/3D-graphics/project2\main.cpp **** 
 482:C:/Users/Marwan/OneDrive/Documents/GitHub/3D-graphics/project2\main.cpp ****             glTranslatef(1.8, 1.4, -16.4f);
 2534              		.loc 2 482 0
 2535 19f9 D9054801 		flds	LC59
 2535      0000
 2536 19ff D95C2408 		fstps	8(%esp)
 2537 1a03 D9054C01 		flds	LC60
 2537      0000
 2538 1a09 D95C2404 		fstps	4(%esp)
 2539 1a0d D9055001 		flds	LC61
 2539      0000
 2540 1a13 D91C24   		fstps	(%esp)
 2541 1a16 E8000000 		call	_glTranslatef@12
 2541      00
 2542 1a1b 83EC0C   		subl	$12, %esp
 483:C:/Users/Marwan/OneDrive/Documents/GitHub/3D-graphics/project2\main.cpp ****             //  rotate around center
 484:C:/Users/Marwan/OneDrive/Documents/GitHub/3D-graphics/project2\main.cpp ****             glRotatef(-35.0, -0.4, 1.0, 0.1);
 2543              		.loc 2 484 0
 2544 1a1e D9052401 		flds	LC52
 2544      0000
 2545 1a24 D95C240C 		fstps	12(%esp)
 2546 1a28 D9E8     		fld1
 2547 1a2a D95C2408 		fstps	8(%esp)
 2548 1a2e D9052801 		flds	LC53
 2548      0000
 2549 1a34 D95C2404 		fstps	4(%esp)
 2550 1a38 D9052C01 		flds	LC54
 2550      0000
 2551 1a3e D91C24   		fstps	(%esp)
 2552 1a41 E8000000 		call	_glRotatef@16
 2552      00
 2553 1a46 83EC10   		subl	$16, %esp
 485:C:/Users/Marwan/OneDrive/Documents/GitHub/3D-graphics/project2\main.cpp **** 
 486:C:/Users/Marwan/OneDrive/Documents/GitHub/3D-graphics/project2\main.cpp ****             glScalef(0.8, 0.8, 0.8); //Make the object bigger
 2554              		.loc 2 486 0
 2555 1a49 D9053001 		flds	LC55
 2555      0000
 2556 1a4f D95C2408 		fstps	8(%esp)
 2557 1a53 D9053001 		flds	LC55
 2557      0000
 2558 1a59 D95C2404 		fstps	4(%esp)
GAS LISTING C:\Users\Marwan\AppData\Local\Temp\ccZ5CEyO.s 			page 73


 2559 1a5d D9053001 		flds	LC55
 2559      0000
 2560 1a63 D91C24   		fstps	(%esp)
 2561 1a66 E8000000 		call	_glScalef@12
 2561      00
 2562 1a6b 83EC0C   		subl	$12, %esp
 487:C:/Users/Marwan/OneDrive/Documents/GitHub/3D-graphics/project2\main.cpp ****             glColor3f(0,0,0); //change the color of the object
 2563              		.loc 2 487 0
 2564 1a6e D9EE     		fldz
 2565 1a70 D95C2408 		fstps	8(%esp)
 2566 1a74 D9EE     		fldz
 2567 1a76 D95C2404 		fstps	4(%esp)
 2568 1a7a D9EE     		fldz
 2569 1a7c D91C24   		fstps	(%esp)
 2570 1a7f E8000000 		call	_glColor3f@12
 2570      00
 2571 1a84 83EC0C   		subl	$12, %esp
 488:C:/Users/Marwan/OneDrive/Documents/GitHub/3D-graphics/project2\main.cpp **** 
 489:C:/Users/Marwan/OneDrive/Documents/GitHub/3D-graphics/project2\main.cpp ****             glutSolidCube(0.8); // draw Flat Blue Box
 2572              		.loc 2 489 0
 2573 1a87 DD054001 		fldl	LC58
 2573      0000
 2574 1a8d DD1C24   		fstpl	(%esp)
 2575 1a90 E8000000 		call	_glutSolidCube@8
 2575      00
 2576 1a95 83EC08   		subl	$8, %esp
 490:C:/Users/Marwan/OneDrive/Documents/GitHub/3D-graphics/project2\main.cpp **** 
 491:C:/Users/Marwan/OneDrive/Documents/GitHub/3D-graphics/project2\main.cpp ****             glPopMatrix();
 2577              		.loc 2 491 0
 2578 1a98 E8000000 		call	_glPopMatrix@0
 2578      00
 492:C:/Users/Marwan/OneDrive/Documents/GitHub/3D-graphics/project2\main.cpp **** 
 493:C:/Users/Marwan/OneDrive/Documents/GitHub/3D-graphics/project2\main.cpp ****             glPushMatrix();  // door
 2579              		.loc 2 493 0
 2580 1a9d E8000000 		call	_glPushMatrix@0
 2580      00
 494:C:/Users/Marwan/OneDrive/Documents/GitHub/3D-graphics/project2\main.cpp **** 
 495:C:/Users/Marwan/OneDrive/Documents/GitHub/3D-graphics/project2\main.cpp ****             glTranslatef(2.4, 0.3, -16.4f);
 2581              		.loc 2 495 0
 2582 1aa2 D9054801 		flds	LC59
 2582      0000
 2583 1aa8 D95C2408 		fstps	8(%esp)
 2584 1aac D9058800 		flds	LC25
 2584      0000
 2585 1ab2 D95C2404 		fstps	4(%esp)
 2586 1ab6 D9055401 		flds	LC62
 2586      0000
 2587 1abc D91C24   		fstps	(%esp)
 2588 1abf E8000000 		call	_glTranslatef@12
 2588      00
 2589 1ac4 83EC0C   		subl	$12, %esp
 496:C:/Users/Marwan/OneDrive/Documents/GitHub/3D-graphics/project2\main.cpp ****             //  rotate around center
 497:C:/Users/Marwan/OneDrive/Documents/GitHub/3D-graphics/project2\main.cpp ****             glRotatef(-35.0, -0.4, 1.0, 0.1);
 2590              		.loc 2 497 0
 2591 1ac7 D9052401 		flds	LC52
 2591      0000
 2592 1acd D95C240C 		fstps	12(%esp)
GAS LISTING C:\Users\Marwan\AppData\Local\Temp\ccZ5CEyO.s 			page 74


 2593 1ad1 D9E8     		fld1
 2594 1ad3 D95C2408 		fstps	8(%esp)
 2595 1ad7 D9052801 		flds	LC53
 2595      0000
 2596 1add D95C2404 		fstps	4(%esp)
 2597 1ae1 D9052C01 		flds	LC54
 2597      0000
 2598 1ae7 D91C24   		fstps	(%esp)
 2599 1aea E8000000 		call	_glRotatef@16
 2599      00
 2600 1aef 83EC10   		subl	$16, %esp
 498:C:/Users/Marwan/OneDrive/Documents/GitHub/3D-graphics/project2\main.cpp **** 
 499:C:/Users/Marwan/OneDrive/Documents/GitHub/3D-graphics/project2\main.cpp ****             glScalef(0.8, 1.5, 0.8); //Make the object bigger
 2601              		.loc 2 499 0
 2602 1af2 D9053001 		flds	LC55
 2602      0000
 2603 1af8 D95C2408 		fstps	8(%esp)
 2604 1afc D9052800 		flds	LC9
 2604      0000
 2605 1b02 D95C2404 		fstps	4(%esp)
 2606 1b06 D9053001 		flds	LC55
 2606      0000
 2607 1b0c D91C24   		fstps	(%esp)
 2608 1b0f E8000000 		call	_glScalef@12
 2608      00
 2609 1b14 83EC0C   		subl	$12, %esp
 500:C:/Users/Marwan/OneDrive/Documents/GitHub/3D-graphics/project2\main.cpp ****             glColor3f(0,0,0); //change the color of the object
 2610              		.loc 2 500 0
 2611 1b17 D9EE     		fldz
 2612 1b19 D95C2408 		fstps	8(%esp)
 2613 1b1d D9EE     		fldz
 2614 1b1f D95C2404 		fstps	4(%esp)
 2615 1b23 D9EE     		fldz
 2616 1b25 D91C24   		fstps	(%esp)
 2617 1b28 E8000000 		call	_glColor3f@12
 2617      00
 2618 1b2d 83EC0C   		subl	$12, %esp
 501:C:/Users/Marwan/OneDrive/Documents/GitHub/3D-graphics/project2\main.cpp **** 
 502:C:/Users/Marwan/OneDrive/Documents/GitHub/3D-graphics/project2\main.cpp ****             glutSolidCube(0.8); // draw Flat Blue Box
 2619              		.loc 2 502 0
 2620 1b30 DD054001 		fldl	LC58
 2620      0000
 2621 1b36 DD1C24   		fstpl	(%esp)
 2622 1b39 E8000000 		call	_glutSolidCube@8
 2622      00
 2623 1b3e 83EC08   		subl	$8, %esp
 503:C:/Users/Marwan/OneDrive/Documents/GitHub/3D-graphics/project2\main.cpp **** 
 504:C:/Users/Marwan/OneDrive/Documents/GitHub/3D-graphics/project2\main.cpp ****             glPopMatrix();
 2624              		.loc 2 504 0
 2625 1b41 E8000000 		call	_glPopMatrix@0
 2625      00
 505:C:/Users/Marwan/OneDrive/Documents/GitHub/3D-graphics/project2\main.cpp **** 
 506:C:/Users/Marwan/OneDrive/Documents/GitHub/3D-graphics/project2\main.cpp **** //////////////////////////////////////////////////////////////////////////////////
 507:C:/Users/Marwan/OneDrive/Documents/GitHub/3D-graphics/project2\main.cpp ****                glLoadIdentity();
 2626              		.loc 2 507 0
 2627 1b46 E8000000 		call	_glLoadIdentity@0
 2627      00
GAS LISTING C:\Users\Marwan\AppData\Local\Temp\ccZ5CEyO.s 			page 75


 508:C:/Users/Marwan/OneDrive/Documents/GitHub/3D-graphics/project2\main.cpp ****                glPushMatrix();                  // Reset the model-view matrix
 2628              		.loc 2 508 0
 2629 1b4b E8000000 		call	_glPushMatrix@0
 2629      00
 509:C:/Users/Marwan/OneDrive/Documents/GitHub/3D-graphics/project2\main.cpp **** 
 510:C:/Users/Marwan/OneDrive/Documents/GitHub/3D-graphics/project2\main.cpp **** 
 511:C:/Users/Marwan/OneDrive/Documents/GitHub/3D-graphics/project2\main.cpp ****     glTranslatef(3, 3.1, -17.0f);  // Move left and into the screen
 2630              		.loc 2 511 0
 2631 1b50 D9052001 		flds	LC51
 2631      0000
 2632 1b56 D95C2408 		fstps	8(%esp)
 2633 1b5a D9055801 		flds	LC63
 2633      0000
 2634 1b60 D95C2404 		fstps	4(%esp)
 2635 1b64 D905BC00 		flds	LC37
 2635      0000
 2636 1b6a D91C24   		fstps	(%esp)
 2637 1b6d E8000000 		call	_glTranslatef@12
 2637      00
 2638 1b72 83EC0C   		subl	$12, %esp
 512:C:/Users/Marwan/OneDrive/Documents/GitHub/3D-graphics/project2\main.cpp **** 
 513:C:/Users/Marwan/OneDrive/Documents/GitHub/3D-graphics/project2\main.cpp ****     glRotatef(-35.0, -0.4, 1.0, 0.1);  // Rotate about the (1,1,0)-axis
 2639              		.loc 2 513 0
 2640 1b75 D9052401 		flds	LC52
 2640      0000
 2641 1b7b D95C240C 		fstps	12(%esp)
 2642 1b7f D9E8     		fld1
 2643 1b81 D95C2408 		fstps	8(%esp)
 2644 1b85 D9052801 		flds	LC53
 2644      0000
 2645 1b8b D95C2404 		fstps	4(%esp)
 2646 1b8f D9052C01 		flds	LC54
 2646      0000
 2647 1b95 D91C24   		fstps	(%esp)
 2648 1b98 E8000000 		call	_glRotatef@16
 2648      00
 2649 1b9d 83EC10   		subl	$16, %esp
 514:C:/Users/Marwan/OneDrive/Documents/GitHub/3D-graphics/project2\main.cpp ****     glScalef(1.5,0.9,2);
 2650              		.loc 2 514 0
 2651 1ba0 D9055C01 		flds	LC64
 2651      0000
 2652 1ba6 D95C2408 		fstps	8(%esp)
 2653 1baa D9056001 		flds	LC65
 2653      0000
 2654 1bb0 D95C2404 		fstps	4(%esp)
 2655 1bb4 D9052800 		flds	LC9
 2655      0000
 2656 1bba D91C24   		fstps	(%esp)
 2657 1bbd E8000000 		call	_glScalef@12
 2657      00
 2658 1bc2 83EC0C   		subl	$12, %esp
 515:C:/Users/Marwan/OneDrive/Documents/GitHub/3D-graphics/project2\main.cpp ****     glBegin(GL_TRIANGLES);           // Begin drawing the pyramid with 4 triangles
 2659              		.loc 2 515 0
 2660 1bc5 C7042404 		movl	$4, (%esp)
 2660      000000
 2661 1bcc E8000000 		call	_glBegin@4
 2661      00
GAS LISTING C:\Users\Marwan\AppData\Local\Temp\ccZ5CEyO.s 			page 76


 2662 1bd1 83EC04   		subl	$4, %esp
 516:C:/Users/Marwan/OneDrive/Documents/GitHub/3D-graphics/project2\main.cpp ****       // Front
 517:C:/Users/Marwan/OneDrive/Documents/GitHub/3D-graphics/project2\main.cpp ****                 glColor3f(1.0f, 0.0f, 0.0f);     // Red
 2663              		.loc 2 517 0
 2664 1bd4 D9EE     		fldz
 2665 1bd6 D95C2408 		fstps	8(%esp)
 2666 1bda D9EE     		fldz
 2667 1bdc D95C2404 		fstps	4(%esp)
 2668 1be0 D9E8     		fld1
 2669 1be2 D91C24   		fstps	(%esp)
 2670 1be5 E8000000 		call	_glColor3f@12
 2670      00
 2671 1bea 83EC0C   		subl	$12, %esp
 518:C:/Users/Marwan/OneDrive/Documents/GitHub/3D-graphics/project2\main.cpp **** 
 519:C:/Users/Marwan/OneDrive/Documents/GitHub/3D-graphics/project2\main.cpp ****       glVertex3f( 0.0f, 1.0f, 0.0f);
 2672              		.loc 2 519 0
 2673 1bed D9EE     		fldz
 2674 1bef D95C2408 		fstps	8(%esp)
 2675 1bf3 D9E8     		fld1
 2676 1bf5 D95C2404 		fstps	4(%esp)
 2677 1bf9 D9EE     		fldz
 2678 1bfb D91C24   		fstps	(%esp)
 2679 1bfe E8000000 		call	_glVertex3f@12
 2679      00
 2680 1c03 83EC0C   		subl	$12, %esp
 520:C:/Users/Marwan/OneDrive/Documents/GitHub/3D-graphics/project2\main.cpp ****                 glColor3f(1.0f, 0.0f, 0.0f);     // Red
 2681              		.loc 2 520 0
 2682 1c06 D9EE     		fldz
 2683 1c08 D95C2408 		fstps	8(%esp)
 2684 1c0c D9EE     		fldz
 2685 1c0e D95C2404 		fstps	4(%esp)
 2686 1c12 D9E8     		fld1
 2687 1c14 D91C24   		fstps	(%esp)
 2688 1c17 E8000000 		call	_glColor3f@12
 2688      00
 2689 1c1c 83EC0C   		subl	$12, %esp
 521:C:/Users/Marwan/OneDrive/Documents/GitHub/3D-graphics/project2\main.cpp **** 
 522:C:/Users/Marwan/OneDrive/Documents/GitHub/3D-graphics/project2\main.cpp ****       glVertex3f(-1.0f, -1.0f, 1.0f);
 2690              		.loc 2 522 0
 2691 1c1f D9E8     		fld1
 2692 1c21 D95C2408 		fstps	8(%esp)
 2693 1c25 D9E8     		fld1
 2694 1c27 D9E0     		fchs
 2695 1c29 D95C2404 		fstps	4(%esp)
 2696 1c2d D9E8     		fld1
 2697 1c2f D9E0     		fchs
 2698 1c31 D91C24   		fstps	(%esp)
 2699 1c34 E8000000 		call	_glVertex3f@12
 2699      00
 2700 1c39 83EC0C   		subl	$12, %esp
 523:C:/Users/Marwan/OneDrive/Documents/GitHub/3D-graphics/project2\main.cpp ****                 glColor3f(1.0f, 0.0f, 0.0f);     // Red
 2701              		.loc 2 523 0
 2702 1c3c D9EE     		fldz
 2703 1c3e D95C2408 		fstps	8(%esp)
 2704 1c42 D9EE     		fldz
 2705 1c44 D95C2404 		fstps	4(%esp)
 2706 1c48 D9E8     		fld1
GAS LISTING C:\Users\Marwan\AppData\Local\Temp\ccZ5CEyO.s 			page 77


 2707 1c4a D91C24   		fstps	(%esp)
 2708 1c4d E8000000 		call	_glColor3f@12
 2708      00
 2709 1c52 83EC0C   		subl	$12, %esp
 524:C:/Users/Marwan/OneDrive/Documents/GitHub/3D-graphics/project2\main.cpp **** 
 525:C:/Users/Marwan/OneDrive/Documents/GitHub/3D-graphics/project2\main.cpp ****       glVertex3f(1.0f, -1.0f, 1.0f);
 2710              		.loc 2 525 0
 2711 1c55 D9E8     		fld1
 2712 1c57 D95C2408 		fstps	8(%esp)
 2713 1c5b D9E8     		fld1
 2714 1c5d D9E0     		fchs
 2715 1c5f D95C2404 		fstps	4(%esp)
 2716 1c63 D9E8     		fld1
 2717 1c65 D91C24   		fstps	(%esp)
 2718 1c68 E8000000 		call	_glVertex3f@12
 2718      00
 2719 1c6d 83EC0C   		subl	$12, %esp
 526:C:/Users/Marwan/OneDrive/Documents/GitHub/3D-graphics/project2\main.cpp **** 
 527:C:/Users/Marwan/OneDrive/Documents/GitHub/3D-graphics/project2\main.cpp ****       // Right
 528:C:/Users/Marwan/OneDrive/Documents/GitHub/3D-graphics/project2\main.cpp ****                 glColor3f(1.0f, 0.0f, 0.0f);     // Red
 2720              		.loc 2 528 0
 2721 1c70 D9EE     		fldz
 2722 1c72 D95C2408 		fstps	8(%esp)
 2723 1c76 D9EE     		fldz
 2724 1c78 D95C2404 		fstps	4(%esp)
 2725 1c7c D9E8     		fld1
 2726 1c7e D91C24   		fstps	(%esp)
 2727 1c81 E8000000 		call	_glColor3f@12
 2727      00
 2728 1c86 83EC0C   		subl	$12, %esp
 529:C:/Users/Marwan/OneDrive/Documents/GitHub/3D-graphics/project2\main.cpp **** 
 530:C:/Users/Marwan/OneDrive/Documents/GitHub/3D-graphics/project2\main.cpp ****       glVertex3f(0.0f, 1.0f, 0.0f);
 2729              		.loc 2 530 0
 2730 1c89 D9EE     		fldz
 2731 1c8b D95C2408 		fstps	8(%esp)
 2732 1c8f D9E8     		fld1
 2733 1c91 D95C2404 		fstps	4(%esp)
 2734 1c95 D9EE     		fldz
 2735 1c97 D91C24   		fstps	(%esp)
 2736 1c9a E8000000 		call	_glVertex3f@12
 2736      00
 2737 1c9f 83EC0C   		subl	$12, %esp
 531:C:/Users/Marwan/OneDrive/Documents/GitHub/3D-graphics/project2\main.cpp ****                 glColor3f(1.0f, 0.0f, 0.0f);     // Red
 2738              		.loc 2 531 0
 2739 1ca2 D9EE     		fldz
 2740 1ca4 D95C2408 		fstps	8(%esp)
 2741 1ca8 D9EE     		fldz
 2742 1caa D95C2404 		fstps	4(%esp)
 2743 1cae D9E8     		fld1
 2744 1cb0 D91C24   		fstps	(%esp)
 2745 1cb3 E8000000 		call	_glColor3f@12
 2745      00
 2746 1cb8 83EC0C   		subl	$12, %esp
 532:C:/Users/Marwan/OneDrive/Documents/GitHub/3D-graphics/project2\main.cpp **** 
 533:C:/Users/Marwan/OneDrive/Documents/GitHub/3D-graphics/project2\main.cpp ****       glVertex3f(1.0f, -1.0f, 1.0f);
 2747              		.loc 2 533 0
 2748 1cbb D9E8     		fld1
GAS LISTING C:\Users\Marwan\AppData\Local\Temp\ccZ5CEyO.s 			page 78


 2749 1cbd D95C2408 		fstps	8(%esp)
 2750 1cc1 D9E8     		fld1
 2751 1cc3 D9E0     		fchs
 2752 1cc5 D95C2404 		fstps	4(%esp)
 2753 1cc9 D9E8     		fld1
 2754 1ccb D91C24   		fstps	(%esp)
 2755 1cce E8000000 		call	_glVertex3f@12
 2755      00
 2756 1cd3 83EC0C   		subl	$12, %esp
 534:C:/Users/Marwan/OneDrive/Documents/GitHub/3D-graphics/project2\main.cpp ****                 glColor3f(1.0f, 0.0f, 0.0f);     // Red
 2757              		.loc 2 534 0
 2758 1cd6 D9EE     		fldz
 2759 1cd8 D95C2408 		fstps	8(%esp)
 2760 1cdc D9EE     		fldz
 2761 1cde D95C2404 		fstps	4(%esp)
 2762 1ce2 D9E8     		fld1
 2763 1ce4 D91C24   		fstps	(%esp)
 2764 1ce7 E8000000 		call	_glColor3f@12
 2764      00
 2765 1cec 83EC0C   		subl	$12, %esp
 535:C:/Users/Marwan/OneDrive/Documents/GitHub/3D-graphics/project2\main.cpp **** 
 536:C:/Users/Marwan/OneDrive/Documents/GitHub/3D-graphics/project2\main.cpp ****       glVertex3f(1.0f, -1.0f, -1.0f);
 2766              		.loc 2 536 0
 2767 1cef D9E8     		fld1
 2768 1cf1 D9E0     		fchs
 2769 1cf3 D95C2408 		fstps	8(%esp)
 2770 1cf7 D9E8     		fld1
 2771 1cf9 D9E0     		fchs
 2772 1cfb D95C2404 		fstps	4(%esp)
 2773 1cff D9E8     		fld1
 2774 1d01 D91C24   		fstps	(%esp)
 2775 1d04 E8000000 		call	_glVertex3f@12
 2775      00
 2776 1d09 83EC0C   		subl	$12, %esp
 537:C:/Users/Marwan/OneDrive/Documents/GitHub/3D-graphics/project2\main.cpp **** 
 538:C:/Users/Marwan/OneDrive/Documents/GitHub/3D-graphics/project2\main.cpp ****       // Back
 539:C:/Users/Marwan/OneDrive/Documents/GitHub/3D-graphics/project2\main.cpp ****                 glColor3f(1.0f, 0.0f, 0.0f);     // Red
 2777              		.loc 2 539 0
 2778 1d0c D9EE     		fldz
 2779 1d0e D95C2408 		fstps	8(%esp)
 2780 1d12 D9EE     		fldz
 2781 1d14 D95C2404 		fstps	4(%esp)
 2782 1d18 D9E8     		fld1
 2783 1d1a D91C24   		fstps	(%esp)
 2784 1d1d E8000000 		call	_glColor3f@12
 2784      00
 2785 1d22 83EC0C   		subl	$12, %esp
 540:C:/Users/Marwan/OneDrive/Documents/GitHub/3D-graphics/project2\main.cpp **** 
 541:C:/Users/Marwan/OneDrive/Documents/GitHub/3D-graphics/project2\main.cpp ****       glVertex3f(0.0f, 1.0f, 0.0f);
 2786              		.loc 2 541 0
 2787 1d25 D9EE     		fldz
 2788 1d27 D95C2408 		fstps	8(%esp)
 2789 1d2b D9E8     		fld1
 2790 1d2d D95C2404 		fstps	4(%esp)
 2791 1d31 D9EE     		fldz
 2792 1d33 D91C24   		fstps	(%esp)
 2793 1d36 E8000000 		call	_glVertex3f@12
GAS LISTING C:\Users\Marwan\AppData\Local\Temp\ccZ5CEyO.s 			page 79


 2793      00
 2794 1d3b 83EC0C   		subl	$12, %esp
 542:C:/Users/Marwan/OneDrive/Documents/GitHub/3D-graphics/project2\main.cpp ****                 glColor3f(1.0f, 0.0f, 0.0f);     // Red
 2795              		.loc 2 542 0
 2796 1d3e D9EE     		fldz
 2797 1d40 D95C2408 		fstps	8(%esp)
 2798 1d44 D9EE     		fldz
 2799 1d46 D95C2404 		fstps	4(%esp)
 2800 1d4a D9E8     		fld1
 2801 1d4c D91C24   		fstps	(%esp)
 2802 1d4f E8000000 		call	_glColor3f@12
 2802      00
 2803 1d54 83EC0C   		subl	$12, %esp
 543:C:/Users/Marwan/OneDrive/Documents/GitHub/3D-graphics/project2\main.cpp **** 
 544:C:/Users/Marwan/OneDrive/Documents/GitHub/3D-graphics/project2\main.cpp ****       glVertex3f(1.0f, -1.0f, -1.0f);
 2804              		.loc 2 544 0
 2805 1d57 D9E8     		fld1
 2806 1d59 D9E0     		fchs
 2807 1d5b D95C2408 		fstps	8(%esp)
 2808 1d5f D9E8     		fld1
 2809 1d61 D9E0     		fchs
 2810 1d63 D95C2404 		fstps	4(%esp)
 2811 1d67 D9E8     		fld1
 2812 1d69 D91C24   		fstps	(%esp)
 2813 1d6c E8000000 		call	_glVertex3f@12
 2813      00
 2814 1d71 83EC0C   		subl	$12, %esp
 545:C:/Users/Marwan/OneDrive/Documents/GitHub/3D-graphics/project2\main.cpp ****                 glColor3f(1.0f, 0.0f, 0.0f);     // Red
 2815              		.loc 2 545 0
 2816 1d74 D9EE     		fldz
 2817 1d76 D95C2408 		fstps	8(%esp)
 2818 1d7a D9EE     		fldz
 2819 1d7c D95C2404 		fstps	4(%esp)
 2820 1d80 D9E8     		fld1
 2821 1d82 D91C24   		fstps	(%esp)
 2822 1d85 E8000000 		call	_glColor3f@12
 2822      00
 2823 1d8a 83EC0C   		subl	$12, %esp
 546:C:/Users/Marwan/OneDrive/Documents/GitHub/3D-graphics/project2\main.cpp **** 
 547:C:/Users/Marwan/OneDrive/Documents/GitHub/3D-graphics/project2\main.cpp ****       glVertex3f(-1.0f, -1.0f, -1.0f);
 2824              		.loc 2 547 0
 2825 1d8d D9E8     		fld1
 2826 1d8f D9E0     		fchs
 2827 1d91 D95C2408 		fstps	8(%esp)
 2828 1d95 D9E8     		fld1
 2829 1d97 D9E0     		fchs
 2830 1d99 D95C2404 		fstps	4(%esp)
 2831 1d9d D9E8     		fld1
 2832 1d9f D9E0     		fchs
 2833 1da1 D91C24   		fstps	(%esp)
 2834 1da4 E8000000 		call	_glVertex3f@12
 2834      00
 2835 1da9 83EC0C   		subl	$12, %esp
 548:C:/Users/Marwan/OneDrive/Documents/GitHub/3D-graphics/project2\main.cpp **** 
 549:C:/Users/Marwan/OneDrive/Documents/GitHub/3D-graphics/project2\main.cpp ****       // Left
 550:C:/Users/Marwan/OneDrive/Documents/GitHub/3D-graphics/project2\main.cpp ****                 glColor3f(1.0f, 0.0f, 0.0f);     // Red
 2836              		.loc 2 550 0
GAS LISTING C:\Users\Marwan\AppData\Local\Temp\ccZ5CEyO.s 			page 80


 2837 1dac D9EE     		fldz
 2838 1dae D95C2408 		fstps	8(%esp)
 2839 1db2 D9EE     		fldz
 2840 1db4 D95C2404 		fstps	4(%esp)
 2841 1db8 D9E8     		fld1
 2842 1dba D91C24   		fstps	(%esp)
 2843 1dbd E8000000 		call	_glColor3f@12
 2843      00
 2844 1dc2 83EC0C   		subl	$12, %esp
 551:C:/Users/Marwan/OneDrive/Documents/GitHub/3D-graphics/project2\main.cpp **** 
 552:C:/Users/Marwan/OneDrive/Documents/GitHub/3D-graphics/project2\main.cpp ****       glVertex3f( 0.0f, 1.0f, 0.0f);
 2845              		.loc 2 552 0
 2846 1dc5 D9EE     		fldz
 2847 1dc7 D95C2408 		fstps	8(%esp)
 2848 1dcb D9E8     		fld1
 2849 1dcd D95C2404 		fstps	4(%esp)
 2850 1dd1 D9EE     		fldz
 2851 1dd3 D91C24   		fstps	(%esp)
 2852 1dd6 E8000000 		call	_glVertex3f@12
 2852      00
 2853 1ddb 83EC0C   		subl	$12, %esp
 553:C:/Users/Marwan/OneDrive/Documents/GitHub/3D-graphics/project2\main.cpp ****                 glColor3f(1.0f, 0.0f, 0.0f);     // Red
 2854              		.loc 2 553 0
 2855 1dde D9EE     		fldz
 2856 1de0 D95C2408 		fstps	8(%esp)
 2857 1de4 D9EE     		fldz
 2858 1de6 D95C2404 		fstps	4(%esp)
 2859 1dea D9E8     		fld1
 2860 1dec D91C24   		fstps	(%esp)
 2861 1def E8000000 		call	_glColor3f@12
 2861      00
 2862 1df4 83EC0C   		subl	$12, %esp
 554:C:/Users/Marwan/OneDrive/Documents/GitHub/3D-graphics/project2\main.cpp **** 
 555:C:/Users/Marwan/OneDrive/Documents/GitHub/3D-graphics/project2\main.cpp ****       glVertex3f(-1.0f,-1.0f,-1.0f);
 2863              		.loc 2 555 0
 2864 1df7 D9E8     		fld1
 2865 1df9 D9E0     		fchs
 2866 1dfb D95C2408 		fstps	8(%esp)
 2867 1dff D9E8     		fld1
 2868 1e01 D9E0     		fchs
 2869 1e03 D95C2404 		fstps	4(%esp)
 2870 1e07 D9E8     		fld1
 2871 1e09 D9E0     		fchs
 2872 1e0b D91C24   		fstps	(%esp)
 2873 1e0e E8000000 		call	_glVertex3f@12
 2873      00
 2874 1e13 83EC0C   		subl	$12, %esp
 556:C:/Users/Marwan/OneDrive/Documents/GitHub/3D-graphics/project2\main.cpp ****                 glColor3f(1.0f, 0.0f, 0.0f);     // Red
 2875              		.loc 2 556 0
 2876 1e16 D9EE     		fldz
 2877 1e18 D95C2408 		fstps	8(%esp)
 2878 1e1c D9EE     		fldz
 2879 1e1e D95C2404 		fstps	4(%esp)
 2880 1e22 D9E8     		fld1
 2881 1e24 D91C24   		fstps	(%esp)
 2882 1e27 E8000000 		call	_glColor3f@12
 2882      00
GAS LISTING C:\Users\Marwan\AppData\Local\Temp\ccZ5CEyO.s 			page 81


 2883 1e2c 83EC0C   		subl	$12, %esp
 557:C:/Users/Marwan/OneDrive/Documents/GitHub/3D-graphics/project2\main.cpp **** 
 558:C:/Users/Marwan/OneDrive/Documents/GitHub/3D-graphics/project2\main.cpp ****       glVertex3f(-1.0f,-1.0f, 1.0f);
 2884              		.loc 2 558 0
 2885 1e2f D9E8     		fld1
 2886 1e31 D95C2408 		fstps	8(%esp)
 2887 1e35 D9E8     		fld1
 2888 1e37 D9E0     		fchs
 2889 1e39 D95C2404 		fstps	4(%esp)
 2890 1e3d D9E8     		fld1
 2891 1e3f D9E0     		fchs
 2892 1e41 D91C24   		fstps	(%esp)
 2893 1e44 E8000000 		call	_glVertex3f@12
 2893      00
 2894 1e49 83EC0C   		subl	$12, %esp
 559:C:/Users/Marwan/OneDrive/Documents/GitHub/3D-graphics/project2\main.cpp ****         glEnd();   // Done drawing the pyramid
 2895              		.loc 2 559 0
 2896 1e4c E8000000 		call	_glEnd@0
 2896      00
 560:C:/Users/Marwan/OneDrive/Documents/GitHub/3D-graphics/project2\main.cpp ****         glPushMatrix();
 2897              		.loc 2 560 0
 2898 1e51 E8000000 		call	_glPushMatrix@0
 2898      00
 561:C:/Users/Marwan/OneDrive/Documents/GitHub/3D-graphics/project2\main.cpp **** 
 562:C:/Users/Marwan/OneDrive/Documents/GitHub/3D-graphics/project2\main.cpp **** //            glPushMatrix();
 563:C:/Users/Marwan/OneDrive/Documents/GitHub/3D-graphics/project2\main.cpp **** //            glTranslatef(0.0, -3.0, -20.0f);
 564:C:/Users/Marwan/OneDrive/Documents/GitHub/3D-graphics/project2\main.cpp **** //            glRecti(0,5,-5,10);
 565:C:/Users/Marwan/OneDrive/Documents/GitHub/3D-graphics/project2\main.cpp **** //            glPopMatrix();
 566:C:/Users/Marwan/OneDrive/Documents/GitHub/3D-graphics/project2\main.cpp **** //        glLoadIdentity();
 567:C:/Users/Marwan/OneDrive/Documents/GitHub/3D-graphics/project2\main.cpp **** //        glTranslated(-13,0,-45);
 568:C:/Users/Marwan/OneDrive/Documents/GitHub/3D-graphics/project2\main.cpp **** //        glRotatef(40,1,1,0);
 569:C:/Users/Marwan/OneDrive/Documents/GitHub/3D-graphics/project2\main.cpp **** //
 570:C:/Users/Marwan/OneDrive/Documents/GitHub/3D-graphics/project2\main.cpp **** //        drawgrid();
 571:C:/Users/Marwan/OneDrive/Documents/GitHub/3D-graphics/project2\main.cpp **** 
 572:C:/Users/Marwan/OneDrive/Documents/GitHub/3D-graphics/project2\main.cpp ****        // glLoadIdentity(); // resets coordination / replace current matrix with I matrix // for ex
 573:C:/Users/Marwan/OneDrive/Documents/GitHub/3D-graphics/project2\main.cpp ****         //(translating matrix current position not from origin so glLoadIdentity to start from orig
 574:C:/Users/Marwan/OneDrive/Documents/GitHub/3D-graphics/project2\main.cpp ****        // glTranslatef(0.0,0.0,-15.0);
 575:C:/Users/Marwan/OneDrive/Documents/GitHub/3D-graphics/project2\main.cpp ****         //glRotatef(10,1,1,0);
 576:C:/Users/Marwan/OneDrive/Documents/GitHub/3D-graphics/project2\main.cpp **** //         glColor3f(1,0,1);
 577:C:/Users/Marwan/OneDrive/Documents/GitHub/3D-graphics/project2\main.cpp **** //            glBegin(GL_POLYGON);
 578:C:/Users/Marwan/OneDrive/Documents/GitHub/3D-graphics/project2\main.cpp **** //            glVertex2f(5+translateX,-5+translateY);
 579:C:/Users/Marwan/OneDrive/Documents/GitHub/3D-graphics/project2\main.cpp **** //            glVertex2f(5+translateX,-8+translateY);
 580:C:/Users/Marwan/OneDrive/Documents/GitHub/3D-graphics/project2\main.cpp **** //            glVertex2f(2+translateX,-8+translateY);
 581:C:/Users/Marwan/OneDrive/Documents/GitHub/3D-graphics/project2\main.cpp **** //            glVertex2f(2+translateX,-5+translateY);
 582:C:/Users/Marwan/OneDrive/Documents/GitHub/3D-graphics/project2\main.cpp **** //            glEnd();
 583:C:/Users/Marwan/OneDrive/Documents/GitHub/3D-graphics/project2\main.cpp **** // glLoadIdentity();
 584:C:/Users/Marwan/OneDrive/Documents/GitHub/3D-graphics/project2\main.cpp **** 
 585:C:/Users/Marwan/OneDrive/Documents/GitHub/3D-graphics/project2\main.cpp **** //        cube();
 586:C:/Users/Marwan/OneDrive/Documents/GitHub/3D-graphics/project2\main.cpp **** //       // sphere();
 587:C:/Users/Marwan/OneDrive/Documents/GitHub/3D-graphics/project2\main.cpp **** //    // Render a pyramid consists of 4 triangles
 588:C:/Users/Marwan/OneDrive/Documents/GitHub/3D-graphics/project2\main.cpp **** //        triangle(-5.5,0);
 589:C:/Users/Marwan/OneDrive/Documents/GitHub/3D-graphics/project2\main.cpp **** //        triangle(-3.5,0.5);
 590:C:/Users/Marwan/OneDrive/Documents/GitHub/3D-graphics/project2\main.cpp **** //        triangle(-1.5,1);
 591:C:/Users/Marwan/OneDrive/Documents/GitHub/3D-graphics/project2\main.cpp **** 
 592:C:/Users/Marwan/OneDrive/Documents/GitHub/3D-graphics/project2\main.cpp **** 
 593:C:/Users/Marwan/OneDrive/Documents/GitHub/3D-graphics/project2\main.cpp **** //        glLoadIdentity();
 594:C:/Users/Marwan/OneDrive/Documents/GitHub/3D-graphics/project2\main.cpp **** //         glTranslatef(-1.0f, -4.0f, -15.0f);
GAS LISTING C:\Users\Marwan\AppData\Local\Temp\ccZ5CEyO.s 			page 82


 595:C:/Users/Marwan/OneDrive/Documents/GitHub/3D-graphics/project2\main.cpp **** //        glRotatef(angleCube, 1.0f, 1.0f, 1.0f);
 596:C:/Users/Marwan/OneDrive/Documents/GitHub/3D-graphics/project2\main.cpp **** //        //glColor3f(1,0,0);
 597:C:/Users/Marwan/OneDrive/Documents/GitHub/3D-graphics/project2\main.cpp **** //        glutWireTeapot(1);
 598:C:/Users/Marwan/OneDrive/Documents/GitHub/3D-graphics/project2\main.cpp **** //
 599:C:/Users/Marwan/OneDrive/Documents/GitHub/3D-graphics/project2\main.cpp **** //            glPushMatrix();
 600:C:/Users/Marwan/OneDrive/Documents/GitHub/3D-graphics/project2\main.cpp **** //            glLoadIdentity();
 601:C:/Users/Marwan/OneDrive/Documents/GitHub/3D-graphics/project2\main.cpp **** //            glTranslatef(-1.5f, -3.0, -15.0f);  // Move left and into the screen
 602:C:/Users/Marwan/OneDrive/Documents/GitHub/3D-graphics/project2\main.cpp **** //            glColor3f(1,0,0);
 603:C:/Users/Marwan/OneDrive/Documents/GitHub/3D-graphics/project2\main.cpp **** //            glutSolidSphere(2,20,20);
 604:C:/Users/Marwan/OneDrive/Documents/GitHub/3D-graphics/project2\main.cpp **** //            glPopMatrix();
 605:C:/Users/Marwan/OneDrive/Documents/GitHub/3D-graphics/project2\main.cpp ****             // glFlush();
 606:C:/Users/Marwan/OneDrive/Documents/GitHub/3D-graphics/project2\main.cpp **** 
 607:C:/Users/Marwan/OneDrive/Documents/GitHub/3D-graphics/project2\main.cpp ****              if (useFog) {
 2899              		.loc 2 607 0
 2900 1e56 A1580000 		movl	__ZL6useFog, %eax
 2900      00
 2901 1e5b 85C0     		testl	%eax, %eax
 2902 1e5d 740F     		je	L37
 608:C:/Users/Marwan/OneDrive/Documents/GitHub/3D-graphics/project2\main.cpp ****     glDisable(GL_FOG);
 2903              		.loc 2 608 0
 2904 1e5f C7042460 		movl	$2912, (%esp)
 2904      0B0000
 2905 1e66 E8000000 		call	_glDisable@4
 2905      00
 2906 1e6b 83EC04   		subl	$4, %esp
 2907              	L37:
 609:C:/Users/Marwan/OneDrive/Documents/GitHub/3D-graphics/project2\main.cpp ****   }
 610:C:/Users/Marwan/OneDrive/Documents/GitHub/3D-graphics/project2\main.cpp **** 
 611:C:/Users/Marwan/OneDrive/Documents/GitHub/3D-graphics/project2\main.cpp ****           glutSwapBuffers();
 2908              		.loc 2 611 0
 2909 1e6e E8000000 		call	_glutSwapBuffers@0
 2909      00
 612:C:/Users/Marwan/OneDrive/Documents/GitHub/3D-graphics/project2\main.cpp **** 
 613:C:/Users/Marwan/OneDrive/Documents/GitHub/3D-graphics/project2\main.cpp ****     // Update the rotational angle after each refresh [NEW]
 614:C:/Users/Marwan/OneDrive/Documents/GitHub/3D-graphics/project2\main.cpp ****     if(rotatee){
 2910              		.loc 2 614 0
 2911 1e73 A1380000 		movl	_rotatee, %eax
 2911      00
 2912 1e78 85C0     		testl	%eax, %eax
 2913 1e7a 7414     		je	L38
 615:C:/Users/Marwan/OneDrive/Documents/GitHub/3D-graphics/project2\main.cpp ****         anglesun+=0.05;
 2914              		.loc 2 615 0
 2915 1e7c DD052000 		fldl	_anglesun
 2915      0000
 2916 1e82 DD056801 		fldl	LC66
 2916      0000
 2917 1e88 DEC1     		faddp	%st, %st(1)
 2918 1e8a DD1D2000 		fstpl	_anglesun
 2918      0000
 2919              	L38:
 616:C:/Users/Marwan/OneDrive/Documents/GitHub/3D-graphics/project2\main.cpp ****     }
 617:C:/Users/Marwan/OneDrive/Documents/GitHub/3D-graphics/project2\main.cpp ****   if(rotatee)
 2920              		.loc 2 617 0
 2921 1e90 A1380000 		movl	_rotatee, %eax
 2921      00
 2922 1e95 85C0     		testl	%eax, %eax
 2923 1e97 7414     		je	L39
GAS LISTING C:\Users\Marwan\AppData\Local\Temp\ccZ5CEyO.s 			page 83


 618:C:/Users/Marwan/OneDrive/Documents/GitHub/3D-graphics/project2\main.cpp ****    anglePyramid += 0.1f;
 2924              		.loc 2 618 0
 2925 1e99 D9055000 		flds	_anglePyramid
 2925      0000
 2926 1e9f D9052401 		flds	LC52
 2926      0000
 2927 1ea5 DEC1     		faddp	%st, %st(1)
 2928 1ea7 D91D5000 		fstps	_anglePyramid
 2928      0000
 2929              	L39:
 619:C:/Users/Marwan/OneDrive/Documents/GitHub/3D-graphics/project2\main.cpp ****    if(rotatee)
 2930              		.loc 2 619 0
 2931 1ead A1380000 		movl	_rotatee, %eax
 2931      00
 2932 1eb2 85C0     		testl	%eax, %eax
 2933 1eb4 7414     		je	L41
 620:C:/Users/Marwan/OneDrive/Documents/GitHub/3D-graphics/project2\main.cpp ****    angleCube -= 0.05f;
 2934              		.loc 2 620 0
 2935 1eb6 D9055400 		flds	_angleCube
 2935      0000
 2936 1ebc D9057001 		flds	LC67
 2936      0000
 2937 1ec2 DEE9     		fsubrp	%st, %st(1)
 2938 1ec4 D91D5400 		fstps	_angleCube
 2938      0000
 2939              	L41:
 621:C:/Users/Marwan/OneDrive/Documents/GitHub/3D-graphics/project2\main.cpp ****     }
 2940              		.loc 2 621 0
 2941 1eca 90       		nop
 2942 1ecb C9       		leave
 2943              		.cfi_restore 5
 2944              		.cfi_def_cfa 4, 4
 2945 1ecc C3       		ret
 2946              		.cfi_endproc
 2947              	LFE16:
 2948              		.globl	__Z8idleFuncv
 2950              	__Z8idleFuncv:
 2951              	LFB17:
 622:C:/Users/Marwan/OneDrive/Documents/GitHub/3D-graphics/project2\main.cpp ****     void idleFunc (void)
 623:C:/Users/Marwan/OneDrive/Documents/GitHub/3D-graphics/project2\main.cpp ****     {
 2952              		.loc 2 623 0
 2953              		.cfi_startproc
 2954 1ecd 55       		pushl	%ebp
 2955              		.cfi_def_cfa_offset 8
 2956              		.cfi_offset 5, -8
 2957 1ece 89E5     		movl	%esp, %ebp
 2958              		.cfi_def_cfa_register 5
 2959 1ed0 83EC08   		subl	$8, %esp
 624:C:/Users/Marwan/OneDrive/Documents/GitHub/3D-graphics/project2\main.cpp ****        // zRotated += 1;
 625:C:/Users/Marwan/OneDrive/Documents/GitHub/3D-graphics/project2\main.cpp ****         glutPostRedisplay();
 2960              		.loc 2 625 0
 2961 1ed3 E8000000 		call	_glutPostRedisplay@0
 2961      00
 626:C:/Users/Marwan/OneDrive/Documents/GitHub/3D-graphics/project2\main.cpp ****     }
 2962              		.loc 2 626 0
 2963 1ed8 90       		nop
 2964 1ed9 C9       		leave
GAS LISTING C:\Users\Marwan\AppData\Local\Temp\ccZ5CEyO.s 			page 84


 2965              		.cfi_restore 5
 2966              		.cfi_def_cfa 4, 4
 2967 1eda C3       		ret
 2968              		.cfi_endproc
 2969              	LFE17:
 2970              		.globl	__Z5timeri
 2972              	__Z5timeri:
 2973              	LFB18:
 627:C:/Users/Marwan/OneDrive/Documents/GitHub/3D-graphics/project2\main.cpp ****     void timer(int ){
 2974              		.loc 2 627 0
 2975              		.cfi_startproc
 2976 1edb 55       		pushl	%ebp
 2977              		.cfi_def_cfa_offset 8
 2978              		.cfi_offset 5, -8
 2979 1edc 89E5     		movl	%esp, %ebp
 2980              		.cfi_def_cfa_register 5
 2981 1ede 83EC28   		subl	$40, %esp
 628:C:/Users/Marwan/OneDrive/Documents/GitHub/3D-graphics/project2\main.cpp ****         glutPostRedisplay();// function that is responsible to run display function again // displa
 2982              		.loc 2 628 0
 2983 1ee1 E8000000 		call	_glutPostRedisplay@0
 2983      00
 629:C:/Users/Marwan/OneDrive/Documents/GitHub/3D-graphics/project2\main.cpp ****        // glutTimerFunc(1000/60,timer,0); // Recursion to keep looping to keep animation going // (
 630:C:/Users/Marwan/OneDrive/Documents/GitHub/3D-graphics/project2\main.cpp ****         if(COLOR==1)COLOR=0;
 2984              		.loc 2 630 0
 2985 1ee6 A1180000 		movl	_COLOR, %eax
 2985      00
 2986 1eeb 83F801   		cmpl	$1, %eax
 2987 1eee 750C     		jne	L44
 2988              		.loc 2 630 0 is_stmt 0 discriminator 1
 2989 1ef0 C7051800 		movl	$0, _COLOR
 2989      00000000 
 2989      0000
 2990 1efa EB0A     		jmp	L45
 2991              	L44:
 631:C:/Users/Marwan/OneDrive/Documents/GitHub/3D-graphics/project2\main.cpp ****     else COLOR=1;
 2992              		.loc 2 631 0 is_stmt 1
 2993 1efc C7051800 		movl	$1, _COLOR
 2993      00000100 
 2993      0000
 2994              	L45:
 632:C:/Users/Marwan/OneDrive/Documents/GitHub/3D-graphics/project2\main.cpp ****      Sleep(500);
 2995              		.loc 2 632 0
 2996 1f06 C70424F4 		movl	$500, (%esp)
 2996      010000
 2997 1f0d E8000000 		call	_Sleep@4
 2997      00
 2998 1f12 83EC04   		subl	$4, %esp
 633:C:/Users/Marwan/OneDrive/Documents/GitHub/3D-graphics/project2\main.cpp ****     glutPostRedisplay();
 2999              		.loc 2 633 0
 3000 1f15 E8000000 		call	_glutPostRedisplay@0
 3000      00
 634:C:/Users/Marwan/OneDrive/Documents/GitHub/3D-graphics/project2\main.cpp ****     x+=0.1*direction;
 3001              		.loc 2 634 0
 3002 1f1a D9052C00 		flds	_x
 3002      0000
 3003 1f20 A1080000 		movl	_direction, %eax
 3003      00
GAS LISTING C:\Users\Marwan\AppData\Local\Temp\ccZ5CEyO.s 			page 85


 3004 1f25 8945F0   		movl	%eax, -16(%ebp)
 3005 1f28 DB45F0   		fildl	-16(%ebp)
 3006 1f2b DD057801 		fldl	LC68
 3006      0000
 3007 1f31 DEC9     		fmulp	%st, %st(1)
 3008 1f33 DEC1     		faddp	%st, %st(1)
 3009 1f35 D95DF4   		fstps	-12(%ebp)
 3010 1f38 D945F4   		flds	-12(%ebp)
 3011 1f3b D91D2C00 		fstps	_x
 3011      0000
 635:C:/Users/Marwan/OneDrive/Documents/GitHub/3D-graphics/project2\main.cpp ****     if(x>=5)
 3012              		.loc 2 635 0
 3013 1f41 D9052C00 		flds	_x
 3013      0000
 3014 1f47 D9058001 		flds	LC69
 3014      0000
 3015 1f4d D9C9     		fxch	%st(1)
 3016 1f4f DFE9     		fucomip	%st(1), %st
 3017 1f51 DDD8     		fstp	%st(0)
 3018 1f53 720C     		jb	L52
 636:C:/Users/Marwan/OneDrive/Documents/GitHub/3D-graphics/project2\main.cpp ****         direction=-1;
 3019              		.loc 2 636 0
 3020 1f55 C7050800 		movl	$-1, _direction
 3020      0000FFFF 
 3020      FFFF
 3021 1f5f EB1C     		jmp	L48
 3022              	L52:
 637:C:/Users/Marwan/OneDrive/Documents/GitHub/3D-graphics/project2\main.cpp ****     else if (x<=-8)direction=1;
 3023              		.loc 2 637 0
 3024 1f61 D9052C00 		flds	_x
 3024      0000
 3025 1f67 D9058401 		flds	LC70
 3025      0000
 3026 1f6d DFE9     		fucomip	%st(1), %st
 3027 1f6f DDD8     		fstp	%st(0)
 3028 1f71 720A     		jb	L48
 3029              		.loc 2 637 0 is_stmt 0 discriminator 1
 3030 1f73 C7050800 		movl	$1, _direction
 3030      00000100 
 3030      0000
 3031              	L48:
 638:C:/Users/Marwan/OneDrive/Documents/GitHub/3D-graphics/project2\main.cpp ****         glutTimerFunc(refreshMills, timer, 0);
 3032              		.loc 2 638 0 is_stmt 1
 3033 1f7d A13C0000 		movl	_refreshMills, %eax
 3033      00
 3034 1f82 C7442408 		movl	$0, 8(%esp)
 3034      00000000 
 3035 1f8a C7442404 		movl	$__Z5timeri, 4(%esp)
 3035      DB1E0000 
 3036 1f92 890424   		movl	%eax, (%esp)
 3037 1f95 E8000000 		call	_glutTimerFunc@12
 3037      00
 3038 1f9a 83EC0C   		subl	$12, %esp
 639:C:/Users/Marwan/OneDrive/Documents/GitHub/3D-graphics/project2\main.cpp ****         glutPostRedisplay();
 3039              		.loc 2 639 0
 3040 1f9d E8000000 		call	_glutPostRedisplay@0
 3040      00
GAS LISTING C:\Users\Marwan\AppData\Local\Temp\ccZ5CEyO.s 			page 86


 640:C:/Users/Marwan/OneDrive/Documents/GitHub/3D-graphics/project2\main.cpp ****     }
 3041              		.loc 2 640 0
 3042 1fa2 90       		nop
 3043 1fa3 C9       		leave
 3044              		.cfi_restore 5
 3045              		.cfi_def_cfa 4, 4
 3046 1fa4 C3       		ret
 3047              		.cfi_endproc
 3048              	LFE18:
 3049              		.globl	__Z7reshapeii
 3051              	__Z7reshapeii:
 3052              	LFB19:
 641:C:/Users/Marwan/OneDrive/Documents/GitHub/3D-graphics/project2\main.cpp **** 
 642:C:/Users/Marwan/OneDrive/Documents/GitHub/3D-graphics/project2\main.cpp ****     void reshape(int w, int h){
 3053              		.loc 2 642 0
 3054              		.cfi_startproc
 3055 1fa5 55       		pushl	%ebp
 3056              		.cfi_def_cfa_offset 8
 3057              		.cfi_offset 5, -8
 3058 1fa6 89E5     		movl	%esp, %ebp
 3059              		.cfi_def_cfa_register 5
 3060 1fa8 83EC28   		subl	$40, %esp
 643:C:/Users/Marwan/OneDrive/Documents/GitHub/3D-graphics/project2\main.cpp ****         glViewport(0,0,(GLsizei)w , (GLsizei)h) ;// el makan el b3red meno el shasha bt3ti
 3061              		.loc 2 643 0
 3062 1fab 8B450C   		movl	12(%ebp), %eax
 3063 1fae 8944240C 		movl	%eax, 12(%esp)
 3064 1fb2 8B4508   		movl	8(%ebp), %eax
 3065 1fb5 89442408 		movl	%eax, 8(%esp)
 3066 1fb9 C7442404 		movl	$0, 4(%esp)
 3066      00000000 
 3067 1fc1 C7042400 		movl	$0, (%esp)
 3067      000000
 3068 1fc8 E8000000 		call	_glViewport@16
 3068      00
 3069 1fcd 83EC10   		subl	$16, %esp
 644:C:/Users/Marwan/OneDrive/Documents/GitHub/3D-graphics/project2\main.cpp **** 
 645:C:/Users/Marwan/OneDrive/Documents/GitHub/3D-graphics/project2\main.cpp ****         glMatrixMode(GL_PROJECTION);
 3070              		.loc 2 645 0
 3071 1fd0 C7042401 		movl	$5889, (%esp)
 3071      170000
 3072 1fd7 E8000000 		call	_glMatrixMode@4
 3072      00
 3073 1fdc 83EC04   		subl	$4, %esp
 646:C:/Users/Marwan/OneDrive/Documents/GitHub/3D-graphics/project2\main.cpp ****         glLoadIdentity(); // i need to reset matrix after resize since it differs
 3074              		.loc 2 646 0
 3075 1fdf E8000000 		call	_glLoadIdentity@0
 3075      00
 647:C:/Users/Marwan/OneDrive/Documents/GitHub/3D-graphics/project2\main.cpp ****        // gluOrtho2D(-20,20,-20,20);
 648:C:/Users/Marwan/OneDrive/Documents/GitHub/3D-graphics/project2\main.cpp ****        gluPerspective(40.0,(GLdouble)w/(GLdouble)h,0.5,20.0);
 3076              		.loc 2 648 0
 3077 1fe4 DB4508   		fildl	8(%ebp)
 3078 1fe7 DB450C   		fildl	12(%ebp)
 3079 1fea DEF9     		fdivrp	%st, %st(1)
 3080 1fec DD058801 		fldl	LC71
 3080      0000
 3081 1ff2 DD5C2418 		fstpl	24(%esp)
 3082 1ff6 DD059000 		fldl	LC26
GAS LISTING C:\Users\Marwan\AppData\Local\Temp\ccZ5CEyO.s 			page 87


 3082      0000
 3083 1ffc DD5C2410 		fstpl	16(%esp)
 3084 2000 DD5C2408 		fstpl	8(%esp)
 3085 2004 DD059001 		fldl	LC72
 3085      0000
 3086 200a DD1C24   		fstpl	(%esp)
 3087 200d E8000000 		call	_gluPerspective@32
 3087      00
 3088 2012 83EC20   		subl	$32, %esp
 649:C:/Users/Marwan/OneDrive/Documents/GitHub/3D-graphics/project2\main.cpp ****         glMatrixMode(GL_MODELVIEW);
 3089              		.loc 2 649 0
 3090 2015 C7042400 		movl	$5888, (%esp)
 3090      170000
 3091 201c E8000000 		call	_glMatrixMode@4
 3091      00
 3092 2021 83EC04   		subl	$4, %esp
 650:C:/Users/Marwan/OneDrive/Documents/GitHub/3D-graphics/project2\main.cpp **** 
 651:C:/Users/Marwan/OneDrive/Documents/GitHub/3D-graphics/project2\main.cpp ****     }
 3093              		.loc 2 651 0
 3094 2024 90       		nop
 3095 2025 C9       		leave
 3096              		.cfi_restore 5
 3097              		.cfi_def_cfa 4, 4
 3098 2026 C3       		ret
 3099              		.cfi_endproc
 3100              	LFE19:
 3101              		.globl	__Z7texturev
 3103              	__Z7texturev:
 3104              	LFB20:
 652:C:/Users/Marwan/OneDrive/Documents/GitHub/3D-graphics/project2\main.cpp **** 
 653:C:/Users/Marwan/OneDrive/Documents/GitHub/3D-graphics/project2\main.cpp **** 
 654:C:/Users/Marwan/OneDrive/Documents/GitHub/3D-graphics/project2\main.cpp ****      void texture (void){
 3105              		.loc 2 654 0
 3106              		.cfi_startproc
 3107 2027 55       		pushl	%ebp
 3108              		.cfi_def_cfa_offset 8
 3109              		.cfi_offset 5, -8
 3110 2028 89E5     		movl	%esp, %ebp
 3111              		.cfi_def_cfa_register 5
 3112 202a 81EC9800 		subl	$152, %esp
 3112      0000
 655:C:/Users/Marwan/OneDrive/Documents/GitHub/3D-graphics/project2\main.cpp **** 
 656:C:/Users/Marwan/OneDrive/Documents/GitHub/3D-graphics/project2\main.cpp ****         const GLfloat light_ambient[]  = { 0.0f, 0.0f, 0.0f, 1.0f };
 3113              		.loc 2 656 0
 3114 2030 D9EE     		fldz
 3115 2032 D95DE8   		fstps	-24(%ebp)
 3116 2035 D9EE     		fldz
 3117 2037 D95DEC   		fstps	-20(%ebp)
 3118 203a D9EE     		fldz
 3119 203c D95DF0   		fstps	-16(%ebp)
 3120 203f D9E8     		fld1
 3121 2041 D95DF4   		fstps	-12(%ebp)
 657:C:/Users/Marwan/OneDrive/Documents/GitHub/3D-graphics/project2\main.cpp ****         const GLfloat light_diffuse[]  = { 1.0f, 1.0f, 1.0f, 1.0f };
 3122              		.loc 2 657 0
 3123 2044 D9E8     		fld1
 3124 2046 D95DD8   		fstps	-40(%ebp)
 3125 2049 D9E8     		fld1
GAS LISTING C:\Users\Marwan\AppData\Local\Temp\ccZ5CEyO.s 			page 88


 3126 204b D95DDC   		fstps	-36(%ebp)
 3127 204e D9E8     		fld1
 3128 2050 D95DE0   		fstps	-32(%ebp)
 3129 2053 D9E8     		fld1
 3130 2055 D95DE4   		fstps	-28(%ebp)
 658:C:/Users/Marwan/OneDrive/Documents/GitHub/3D-graphics/project2\main.cpp ****         const GLfloat light_specular[] = { 1.0f, 1.0f, 1.0f, 1.0f };
 3131              		.loc 2 658 0
 3132 2058 D9E8     		fld1
 3133 205a D95DC8   		fstps	-56(%ebp)
 3134 205d D9E8     		fld1
 3135 205f D95DCC   		fstps	-52(%ebp)
 3136 2062 D9E8     		fld1
 3137 2064 D95DD0   		fstps	-48(%ebp)
 3138 2067 D9E8     		fld1
 3139 2069 D95DD4   		fstps	-44(%ebp)
 659:C:/Users/Marwan/OneDrive/Documents/GitHub/3D-graphics/project2\main.cpp ****         const GLfloat light_position[] = { 2.0f, 5.0f, 5.0f, 0.0f };
 3140              		.loc 2 659 0
 3141 206c D9055C01 		flds	LC64
 3141      0000
 3142 2072 D95DB8   		fstps	-72(%ebp)
 3143 2075 D9058001 		flds	LC69
 3143      0000
 3144 207b D95DBC   		fstps	-68(%ebp)
 3145 207e D9058001 		flds	LC69
 3145      0000
 3146 2084 D95DC0   		fstps	-64(%ebp)
 3147 2087 D9EE     		fldz
 3148 2089 D95DC4   		fstps	-60(%ebp)
 660:C:/Users/Marwan/OneDrive/Documents/GitHub/3D-graphics/project2\main.cpp **** 
 661:C:/Users/Marwan/OneDrive/Documents/GitHub/3D-graphics/project2\main.cpp ****         const GLfloat mat_ambient[]    = { 0.7f, 0.7f, 0.7f, 1.0f };
 3149              		.loc 2 661 0
 3150 208c D9059801 		flds	LC73
 3150      0000
 3151 2092 D95DA8   		fstps	-88(%ebp)
 3152 2095 D9059801 		flds	LC73
 3152      0000
 3153 209b D95DAC   		fstps	-84(%ebp)
 3154 209e D9059801 		flds	LC73
 3154      0000
 3155 20a4 D95DB0   		fstps	-80(%ebp)
 3156 20a7 D9E8     		fld1
 3157 20a9 D95DB4   		fstps	-76(%ebp)
 662:C:/Users/Marwan/OneDrive/Documents/GitHub/3D-graphics/project2\main.cpp ****         const GLfloat mat_diffuse[]    = { 0.8f, 0.8f, 0.8f, 1.0f };
 3158              		.loc 2 662 0
 3159 20ac D9053001 		flds	LC55
 3159      0000
 3160 20b2 D95D98   		fstps	-104(%ebp)
 3161 20b5 D9053001 		flds	LC55
 3161      0000
 3162 20bb D95D9C   		fstps	-100(%ebp)
 3163 20be D9053001 		flds	LC55
 3163      0000
 3164 20c4 D95DA0   		fstps	-96(%ebp)
 3165 20c7 D9E8     		fld1
 3166 20c9 D95DA4   		fstps	-92(%ebp)
 663:C:/Users/Marwan/OneDrive/Documents/GitHub/3D-graphics/project2\main.cpp ****         const GLfloat mat_specular[]   = { 1.0f, 1.0f, 1.0f, 1.0f };
 3167              		.loc 2 663 0
GAS LISTING C:\Users\Marwan\AppData\Local\Temp\ccZ5CEyO.s 			page 89


 3168 20cc D9E8     		fld1
 3169 20ce D95D88   		fstps	-120(%ebp)
 3170 20d1 D9E8     		fld1
 3171 20d3 D95D8C   		fstps	-116(%ebp)
 3172 20d6 D9E8     		fld1
 3173 20d8 D95D90   		fstps	-112(%ebp)
 3174 20db D9E8     		fld1
 3175 20dd D95D94   		fstps	-108(%ebp)
 664:C:/Users/Marwan/OneDrive/Documents/GitHub/3D-graphics/project2\main.cpp ****         const GLfloat high_shininess[] = { 100.0f };
 3176              		.loc 2 664 0
 3177 20e0 D9059C01 		flds	LC74
 3177      0000
 3178 20e6 D95D84   		fstps	-124(%ebp)
 665:C:/Users/Marwan/OneDrive/Documents/GitHub/3D-graphics/project2\main.cpp **** 
 666:C:/Users/Marwan/OneDrive/Documents/GitHub/3D-graphics/project2\main.cpp ****             glEnable(GL_CULL_FACE);
 3179              		.loc 2 666 0
 3180 20e9 C7042444 		movl	$2884, (%esp)
 3180      0B0000
 3181 20f0 E8000000 		call	_glEnable@4
 3181      00
 3182 20f5 83EC04   		subl	$4, %esp
 667:C:/Users/Marwan/OneDrive/Documents/GitHub/3D-graphics/project2\main.cpp ****             glCullFace(GL_BACK);
 3183              		.loc 2 667 0
 3184 20f8 C7042405 		movl	$1029, (%esp)
 3184      040000
 3185 20ff E8000000 		call	_glCullFace@4
 3185      00
 3186 2104 83EC04   		subl	$4, %esp
 668:C:/Users/Marwan/OneDrive/Documents/GitHub/3D-graphics/project2\main.cpp **** 
 669:C:/Users/Marwan/OneDrive/Documents/GitHub/3D-graphics/project2\main.cpp ****             glEnable(GL_DEPTH_TEST);
 3187              		.loc 2 669 0
 3188 2107 C7042471 		movl	$2929, (%esp)
 3188      0B0000
 3189 210e E8000000 		call	_glEnable@4
 3189      00
 3190 2113 83EC04   		subl	$4, %esp
 670:C:/Users/Marwan/OneDrive/Documents/GitHub/3D-graphics/project2\main.cpp ****             glDepthFunc(GL_LESS);
 3191              		.loc 2 670 0
 3192 2116 C7042401 		movl	$513, (%esp)
 3192      020000
 3193 211d E8000000 		call	_glDepthFunc@4
 3193      00
 3194 2122 83EC04   		subl	$4, %esp
 671:C:/Users/Marwan/OneDrive/Documents/GitHub/3D-graphics/project2\main.cpp **** 
 672:C:/Users/Marwan/OneDrive/Documents/GitHub/3D-graphics/project2\main.cpp ****             glEnable(GL_LIGHT0);
 3195              		.loc 2 672 0
 3196 2125 C7042400 		movl	$16384, (%esp)
 3196      400000
 3197 212c E8000000 		call	_glEnable@4
 3197      00
 3198 2131 83EC04   		subl	$4, %esp
 673:C:/Users/Marwan/OneDrive/Documents/GitHub/3D-graphics/project2\main.cpp ****             glEnable(GL_NORMALIZE);
 3199              		.loc 2 673 0
 3200 2134 C70424A1 		movl	$2977, (%esp)
 3200      0B0000
 3201 213b E8000000 		call	_glEnable@4
 3201      00
GAS LISTING C:\Users\Marwan\AppData\Local\Temp\ccZ5CEyO.s 			page 90


 3202 2140 83EC04   		subl	$4, %esp
 674:C:/Users/Marwan/OneDrive/Documents/GitHub/3D-graphics/project2\main.cpp ****             glEnable(GL_COLOR_MATERIAL);
 3203              		.loc 2 674 0
 3204 2143 C7042457 		movl	$2903, (%esp)
 3204      0B0000
 3205 214a E8000000 		call	_glEnable@4
 3205      00
 3206 214f 83EC04   		subl	$4, %esp
 675:C:/Users/Marwan/OneDrive/Documents/GitHub/3D-graphics/project2\main.cpp ****             glEnable(GL_LIGHTING);
 3207              		.loc 2 675 0
 3208 2152 C7042450 		movl	$2896, (%esp)
 3208      0B0000
 3209 2159 E8000000 		call	_glEnable@4
 3209      00
 3210 215e 83EC04   		subl	$4, %esp
 676:C:/Users/Marwan/OneDrive/Documents/GitHub/3D-graphics/project2\main.cpp **** 
 677:C:/Users/Marwan/OneDrive/Documents/GitHub/3D-graphics/project2\main.cpp ****             glLightfv(GL_LIGHT0, GL_AMBIENT,  light_ambient);
 3211              		.loc 2 677 0
 3212 2161 8D45E8   		leal	-24(%ebp), %eax
 3213 2164 89442408 		movl	%eax, 8(%esp)
 3214 2168 C7442404 		movl	$4608, 4(%esp)
 3214      00120000 
 3215 2170 C7042400 		movl	$16384, (%esp)
 3215      400000
 3216 2177 E8000000 		call	_glLightfv@12
 3216      00
 3217 217c 83EC0C   		subl	$12, %esp
 678:C:/Users/Marwan/OneDrive/Documents/GitHub/3D-graphics/project2\main.cpp ****             glLightfv(GL_LIGHT0, GL_DIFFUSE,  light_diffuse);
 3218              		.loc 2 678 0
 3219 217f 8D45D8   		leal	-40(%ebp), %eax
 3220 2182 89442408 		movl	%eax, 8(%esp)
 3221 2186 C7442404 		movl	$4609, 4(%esp)
 3221      01120000 
 3222 218e C7042400 		movl	$16384, (%esp)
 3222      400000
 3223 2195 E8000000 		call	_glLightfv@12
 3223      00
 3224 219a 83EC0C   		subl	$12, %esp
 679:C:/Users/Marwan/OneDrive/Documents/GitHub/3D-graphics/project2\main.cpp ****             glLightfv(GL_LIGHT0, GL_SPECULAR, light_specular);
 3225              		.loc 2 679 0
 3226 219d 8D45C8   		leal	-56(%ebp), %eax
 3227 21a0 89442408 		movl	%eax, 8(%esp)
 3228 21a4 C7442404 		movl	$4610, 4(%esp)
 3228      02120000 
 3229 21ac C7042400 		movl	$16384, (%esp)
 3229      400000
 3230 21b3 E8000000 		call	_glLightfv@12
 3230      00
 3231 21b8 83EC0C   		subl	$12, %esp
 680:C:/Users/Marwan/OneDrive/Documents/GitHub/3D-graphics/project2\main.cpp ****             glLightfv(GL_LIGHT0, GL_POSITION, light_position);
 3232              		.loc 2 680 0
 3233 21bb 8D45B8   		leal	-72(%ebp), %eax
 3234 21be 89442408 		movl	%eax, 8(%esp)
 3235 21c2 C7442404 		movl	$4611, 4(%esp)
 3235      03120000 
 3236 21ca C7042400 		movl	$16384, (%esp)
 3236      400000
GAS LISTING C:\Users\Marwan\AppData\Local\Temp\ccZ5CEyO.s 			page 91


 3237 21d1 E8000000 		call	_glLightfv@12
 3237      00
 3238 21d6 83EC0C   		subl	$12, %esp
 681:C:/Users/Marwan/OneDrive/Documents/GitHub/3D-graphics/project2\main.cpp **** 
 682:C:/Users/Marwan/OneDrive/Documents/GitHub/3D-graphics/project2\main.cpp ****             glMaterialfv(GL_FRONT, GL_AMBIENT,   mat_ambient);
 3239              		.loc 2 682 0
 3240 21d9 8D45A8   		leal	-88(%ebp), %eax
 3241 21dc 89442408 		movl	%eax, 8(%esp)
 3242 21e0 C7442404 		movl	$4608, 4(%esp)
 3242      00120000 
 3243 21e8 C7042404 		movl	$1028, (%esp)
 3243      040000
 3244 21ef E8000000 		call	_glMaterialfv@12
 3244      00
 3245 21f4 83EC0C   		subl	$12, %esp
 683:C:/Users/Marwan/OneDrive/Documents/GitHub/3D-graphics/project2\main.cpp ****             glMaterialfv(GL_FRONT, GL_DIFFUSE,   mat_diffuse);
 3246              		.loc 2 683 0
 3247 21f7 8D4598   		leal	-104(%ebp), %eax
 3248 21fa 89442408 		movl	%eax, 8(%esp)
 3249 21fe C7442404 		movl	$4609, 4(%esp)
 3249      01120000 
 3250 2206 C7042404 		movl	$1028, (%esp)
 3250      040000
 3251 220d E8000000 		call	_glMaterialfv@12
 3251      00
 3252 2212 83EC0C   		subl	$12, %esp
 684:C:/Users/Marwan/OneDrive/Documents/GitHub/3D-graphics/project2\main.cpp ****             glMaterialfv(GL_FRONT, GL_SPECULAR,  mat_specular);
 3253              		.loc 2 684 0
 3254 2215 8D4588   		leal	-120(%ebp), %eax
 3255 2218 89442408 		movl	%eax, 8(%esp)
 3256 221c C7442404 		movl	$4610, 4(%esp)
 3256      02120000 
 3257 2224 C7042404 		movl	$1028, (%esp)
 3257      040000
 3258 222b E8000000 		call	_glMaterialfv@12
 3258      00
 3259 2230 83EC0C   		subl	$12, %esp
 685:C:/Users/Marwan/OneDrive/Documents/GitHub/3D-graphics/project2\main.cpp ****             glMaterialfv(GL_FRONT, GL_SHININESS, high_shininess);
 3260              		.loc 2 685 0
 3261 2233 8D4584   		leal	-124(%ebp), %eax
 3262 2236 89442408 		movl	%eax, 8(%esp)
 3263 223a C7442404 		movl	$5633, 4(%esp)
 3263      01160000 
 3264 2242 C7042404 		movl	$1028, (%esp)
 3264      040000
 3265 2249 E8000000 		call	_glMaterialfv@12
 3265      00
 3266 224e 83EC0C   		subl	$12, %esp
 686:C:/Users/Marwan/OneDrive/Documents/GitHub/3D-graphics/project2\main.cpp ****         }
 3267              		.loc 2 686 0
 3268 2251 90       		nop
 3269 2252 C9       		leave
 3270              		.cfi_restore 5
 3271              		.cfi_def_cfa 4, 4
 3272 2253 C3       		ret
 3273              		.cfi_endproc
 3274              	LFE20:
GAS LISTING C:\Users\Marwan\AppData\Local\Temp\ccZ5CEyO.s 			page 92


 3275              		.section .rdata,"dr"
 3276 0012 0000     		.align 4
 3277              	LC1:
 3278 0014 31086C3F 		.long	1064044593
 3279              		.align 4
 3280              	LC2:
 3281 0018 17D94E3F 		.long	1062131991
 3282              		.align 4
 3283              	LC3:
 3284 001c 8B6C073F 		.long	1057451147
 3285              		.align 4
 3286              	LC5:
 3287 0020 0000A0C1 		.long	-1046478848
 3288              		.align 4
 3289              	LC8:
 3290 0024 000070C1 		.long	-1049624576
 3291              		.align 4
 3292              	LC9:
 3293 0028 0000C03F 		.long	1069547520
 3294              		.align 4
 3295              	LC10:
 3296 002c 0000003F 		.long	1056964608
 3297              		.align 4
 3298              	LC11:
 3299 0030 000040C0 		.long	-1069547520
 3300 0034 00000000 		.align 8
 3301              	LC12:
 3302 0038 00000000 		.long	0
 3303 003c 00000040 		.long	1073741824
 3304              		.align 4
 3305              	LC13:
 3306 0040 2731083E 		.long	1040724263
 3307              		.align 4
 3308              	LC14:
 3309 0044 1F850B3F 		.long	1057719583
 3310              		.align 8
 3311              	LC15:
 3312 0048 66666666 		.long	1717986918
 3313 004c 66660640 		.long	1074161254
 3314              		.align 8
 3315              	LC16:
 3316 0050 66666666 		.long	1717986918
 3317 0054 66661140 		.long	1074882150
 3318              		.align 8
 3319              	LC19:
 3320 0058 00000000 		.long	0
 3321 005c 008056C0 		.long	-1068072960
 3322              		.align 8
 3323              	LC20:
 3324 0060 66666666 		.long	1717986918
 3325 0064 6666E63F 		.long	1072064102
 3326              		.align 8
 3327              	LC21:
 3328 0068 66666666 		.long	1717986918
 3329 006c 66660240 		.long	1073899110
 3330              		.align 8
 3331              	LC22:
GAS LISTING C:\Users\Marwan\AppData\Local\Temp\ccZ5CEyO.s 			page 93


 3332 0070 CDCCCCCC 		.long	-858993459
 3333 0074 CCCCEC3F 		.long	1072483532
 3334              		.align 8
 3335              	LC23:
 3336 0078 CCCCCCCC 		.long	-858993460
 3337 007c CCCCFC3F 		.long	1073532108
 3338              		.align 8
 3339              	LC24:
 3340 0080 33333333 		.long	858993459
 3341 0084 3333F33F 		.long	1072902963
 3342              		.align 4
 3343              	LC25:
 3344 0088 9A99993E 		.long	1050253722
 3345 008c 00000000 		.align 8
 3346              	LC26:
 3347 0090 00000000 		.long	0
 3348 0094 0000E03F 		.long	1071644672
 3349              		.align 4
 3350              	LC28:
 3351 0098 CBA1253F 		.long	1059430859
 3352              		.align 4
 3353              	LC29:
 3354 009c 0000C040 		.long	1086324736
 3355              		.align 4
 3356              	LC30:
 3357 00a0 0000E0C0 		.long	-1059061760
 3358              		.align 4
 3359              	LC31:
 3360 00a4 0000A041 		.long	1101004800
 3361              		.align 4
 3362              	LC32:
 3363 00a8 0000B040 		.long	1085276160
 3364              		.align 4
 3365              	LC33:
 3366 00ac CDCC8C3F 		.long	1066192077
 3367              		.align 4
 3368              	LC34:
 3369 00b0 0000E040 		.long	1088421888
 3370              		.align 4
 3371              	LC35:
 3372 00b4 CDCCCC3E 		.long	1053609165
 3373              		.align 4
 3374              	LC36:
 3375 00b8 00002042 		.long	1109393408
 3376              		.align 4
 3377              	LC37:
 3378 00bc 00004040 		.long	1077936128
 3379              		.align 4
 3380              	LC38:
 3381 00c0 9A99193F 		.long	1058642330
 3382              		.align 4
 3383              	LC39:
 3384 00c4 39B4C83E 		.long	1053340729
 3385              		.align 8
 3386              	LC40:
 3387 00c8 00000000 		.long	0
 3388 00cc 00000840 		.long	1074266112
GAS LISTING C:\Users\Marwan\AppData\Local\Temp\ccZ5CEyO.s 			page 94


 3389              		.align 8
 3390              	LC41:
 3391 00d0 33333333 		.long	858993459
 3392 00d4 33330B40 		.long	1074475827
 3393              		.align 8
 3394              	LC42:
 3395 00d8 00000000 		.long	0
 3396 00dc 000034C0 		.long	-1070333952
 3397              		.align 8
 3398              	LC43:
 3399 00e0 00000000 		.long	0
 3400 00e4 00001840 		.long	1075314688
 3401              		.align 8
 3402              	LC44:
 3403 00e8 00000000 		.long	0
 3404 00ec 00004E40 		.long	1078853632
 3405              		.align 8
 3406              	LC45:
 3407 00f0 9A999999 		.long	-1717986918
 3408 00f4 9999D93F 		.long	1071225241
 3409              		.align 8
 3410              	LC46:
 3411 00f8 9A999999 		.long	-1717986918
 3412 00fc 99990940 		.long	1074370969
 3413              		.align 8
 3414              	LC47:
 3415 0100 9A999999 		.long	-1717986918
 3416 0104 991934C0 		.long	-1070327399
 3417              		.align 8
 3418              	LC48:
 3419 0108 9A999999 		.long	-1717986918
 3420 010c 99991740 		.long	1075288473
 3421              		.align 8
 3422              	LC49:
 3423 0110 66666666 		.long	1717986918
 3424 0114 66E633C0 		.long	-1070340506
 3425              		.align 8
 3426              	LC50:
 3427 0118 66666666 		.long	1717986918
 3428 011c 66661840 		.long	1075340902
 3429              		.align 4
 3430              	LC51:
 3431 0120 000088C1 		.long	-1048051712
 3432              		.align 4
 3433              	LC52:
 3434 0124 CDCCCC3D 		.long	1036831949
 3435              		.align 4
 3436              	LC53:
 3437 0128 CDCCCCBE 		.long	-1093874483
 3438              		.align 4
 3439              	LC54:
 3440 012c 00000CC2 		.long	-1039400960
 3441              		.align 4
 3442              	LC55:
 3443 0130 CDCC4C3F 		.long	1061997773
 3444              		.align 4
 3445              	LC56:
GAS LISTING C:\Users\Marwan\AppData\Local\Temp\ccZ5CEyO.s 			page 95


 3446 0134 000078C1 		.long	-1049100288
 3447              		.align 4
 3448              	LC57:
 3449 0138 9A99993F 		.long	1067030938
 3450 013c 00000000 		.align 8
 3451              	LC58:
 3452 0140 9A999999 		.long	-1717986918
 3453 0144 9999E93F 		.long	1072273817
 3454              		.align 4
 3455              	LC59:
 3456 0148 333383C1 		.long	-1048366285
 3457              		.align 4
 3458              	LC60:
 3459 014c 3333B33F 		.long	1068708659
 3460              		.align 4
 3461              	LC61:
 3462 0150 6666E63F 		.long	1072064102
 3463              		.align 4
 3464              	LC62:
 3465 0154 9A991940 		.long	1075419546
 3466              		.align 4
 3467              	LC63:
 3468 0158 66664640 		.long	1078355558
 3469              		.align 4
 3470              	LC64:
 3471 015c 00000040 		.long	1073741824
 3472              		.align 4
 3473              	LC65:
 3474 0160 6666663F 		.long	1063675494
 3475 0164 00000000 		.align 8
 3476              	LC66:
 3477 0168 9A999999 		.long	-1717986918
 3478 016c 9999A93F 		.long	1068079513
 3479              		.align 4
 3480              	LC67:
 3481 0170 CDCC4C3D 		.long	1028443341
 3482 0174 00000000 		.align 8
 3483              	LC68:
 3484 0178 9A999999 		.long	-1717986918
 3485 017c 9999B93F 		.long	1069128089
 3486              		.align 4
 3487              	LC69:
 3488 0180 0000A040 		.long	1084227584
 3489              		.align 4
 3490              	LC70:
 3491 0184 000000C1 		.long	-1056964608
 3492              		.align 8
 3493              	LC71:
 3494 0188 00000000 		.long	0
 3495 018c 00003440 		.long	1077149696
 3496              		.align 8
 3497              	LC72:
 3498 0190 00000000 		.long	0
 3499 0194 00004440 		.long	1078198272
 3500              		.align 4
 3501              	LC73:
 3502 0198 3333333F 		.long	1060320051
GAS LISTING C:\Users\Marwan\AppData\Local\Temp\ccZ5CEyO.s 			page 96


 3503              		.align 4
 3504              	LC74:
 3505 019c 0000C842 		.long	1120403456
 3506              		.text
 3507              	Letext0:
 3508              		.file 3 "C:/Program Files (x86)/CodeBlocks/MinGW/include/GL/gl.h"
 3509              		.section	.debug_info,"dr"
 3510              	Ldebug_info0:
 3511 0000 C8080000 		.long	0x8c8
 3512 0004 0400     		.word	0x4
 3513 0006 00000000 		.secrel32	Ldebug_abbrev0
 3514 000a 04       		.byte	0x4
 3515 000b 01       		.uleb128 0x1
 3516 000c 474E5520 		.ascii "GNU C++ 5.1.0 -mtune=generic -march=pentiumpro -g\0"
 3516      432B2B20 
 3516      352E312E 
 3516      30202D6D 
 3516      74756E65 
 3517 003e 04       		.byte	0x4
 3518 003f 433A5C55 		.ascii "C:\\Users\\Marwan\\OneDrive\\Documents\\GitHub\\3D-graphics\\project2\\main.cpp\0"
 3518      73657273 
 3518      5C4D6172 
 3518      77616E5C 
 3518      4F6E6544 
 3519 0087 00000000 		.long	Ltext0
 3520 008b 54220000 		.long	Letext0-Ltext0
 3521 008f 00000000 		.secrel32	Ldebug_line0
 3522 0093 02       		.uleb128 0x2
 3523 0094 04       		.byte	0x4
 3524 0095 07       		.byte	0x7
 3525 0096 756E7369 		.ascii "unsigned int\0"
 3525      676E6564 
 3525      20696E74 
 3525      00
 3526 00a3 02       		.uleb128 0x2
 3527 00a4 01       		.byte	0x1
 3528 00a5 08       		.byte	0x8
 3529 00a6 756E7369 		.ascii "unsigned char\0"
 3529      676E6564 
 3529      20636861 
 3529      7200
 3530 00b4 02       		.uleb128 0x2
 3531 00b5 01       		.byte	0x1
 3532 00b6 06       		.byte	0x6
 3533 00b7 7369676E 		.ascii "signed char\0"
 3533      65642063 
 3533      68617200 
 3534 00c3 02       		.uleb128 0x2
 3535 00c4 02       		.byte	0x2
 3536 00c5 05       		.byte	0x5
 3537 00c6 73686F72 		.ascii "short int\0"
 3537      7420696E 
 3537      7400
 3538 00d0 02       		.uleb128 0x2
 3539 00d1 04       		.byte	0x4
 3540 00d2 05       		.byte	0x5
 3541 00d3 696E7400 		.ascii "int\0"
GAS LISTING C:\Users\Marwan\AppData\Local\Temp\ccZ5CEyO.s 			page 97


 3542 00d7 02       		.uleb128 0x2
 3543 00d8 02       		.byte	0x2
 3544 00d9 07       		.byte	0x7
 3545 00da 73686F72 		.ascii "short unsigned int\0"
 3545      7420756E 
 3545      7369676E 
 3545      65642069 
 3545      6E7400
 3546 00ed 03       		.uleb128 0x3
 3547 00ee 474C7369 		.ascii "GLsizei\0"
 3547      7A656900 
 3548 00f6 03       		.byte	0x3
 3549 00f7 7A       		.byte	0x7a
 3550 00f8 D0000000 		.long	0xd0
 3551 00fc 03       		.uleb128 0x3
 3552 00fd 474C666C 		.ascii "GLfloat\0"
 3552      6F617400 
 3553 0105 03       		.byte	0x3
 3554 0106 7B       		.byte	0x7b
 3555 0107 0B010000 		.long	0x10b
 3556 010b 02       		.uleb128 0x2
 3557 010c 04       		.byte	0x4
 3558 010d 04       		.byte	0x4
 3559 010e 666C6F61 		.ascii "float\0"
 3559      7400
 3560 0114 03       		.uleb128 0x3
 3561 0115 474C646F 		.ascii "GLdouble\0"
 3561      75626C65 
 3561      00
 3562 011e 03       		.byte	0x3
 3563 011f 7D       		.byte	0x7d
 3564 0120 24010000 		.long	0x124
 3565 0124 02       		.uleb128 0x2
 3566 0125 08       		.byte	0x8
 3567 0126 04       		.byte	0x4
 3568 0127 646F7562 		.ascii "double\0"
 3568      6C6500
 3569 012e 02       		.uleb128 0x2
 3570 012f 04       		.byte	0x4
 3571 0130 05       		.byte	0x5
 3572 0131 6C6F6E67 		.ascii "long int\0"
 3572      20696E74 
 3572      00
 3573 013a 02       		.uleb128 0x2
 3574 013b 08       		.byte	0x8
 3575 013c 05       		.byte	0x5
 3576 013d 6C6F6E67 		.ascii "long long int\0"
 3576      206C6F6E 
 3576      6720696E 
 3576      7400
 3577 014b 02       		.uleb128 0x2
 3578 014c 01       		.byte	0x1
 3579 014d 06       		.byte	0x6
 3580 014e 63686172 		.ascii "char\0"
 3580      00
 3581 0153 02       		.uleb128 0x2
 3582 0154 04       		.byte	0x4
GAS LISTING C:\Users\Marwan\AppData\Local\Temp\ccZ5CEyO.s 			page 98


 3583 0155 07       		.byte	0x7
 3584 0156 6C6F6E67 		.ascii "long unsigned int\0"
 3584      20756E73 
 3584      69676E65 
 3584      6420696E 
 3584      7400
 3585 0168 04       		.uleb128 0x4
 3586 0169 04       		.byte	0x4
 3587 016a D0000000 		.long	0xd0
 3588 016e 04       		.uleb128 0x4
 3589 016f 04       		.byte	0x4
 3590 0170 4B010000 		.long	0x14b
 3591 0174 02       		.uleb128 0x2
 3592 0175 02       		.byte	0x2
 3593 0176 07       		.byte	0x7
 3594 0177 77636861 		.ascii "wchar_t\0"
 3594      725F7400 
 3595 017f 02       		.uleb128 0x2
 3596 0180 08       		.byte	0x8
 3597 0181 07       		.byte	0x7
 3598 0182 6C6F6E67 		.ascii "long long unsigned int\0"
 3598      206C6F6E 
 3598      6720756E 
 3598      7369676E 
 3598      65642069 
 3599 0199 02       		.uleb128 0x2
 3600 019a 04       		.byte	0x4
 3601 019b 07       		.byte	0x7
 3602 019c 73697A65 		.ascii "sizetype\0"
 3602      74797065 
 3602      00
 3603 01a5 04       		.uleb128 0x4
 3604 01a6 04       		.byte	0x4
 3605 01a7 6E010000 		.long	0x16e
 3606 01ab 04       		.uleb128 0x4
 3607 01ac 04       		.byte	0x4
 3608 01ad B1010000 		.long	0x1b1
 3609 01b1 05       		.uleb128 0x5
 3610 01b2 4B010000 		.long	0x14b
 3611 01b6 02       		.uleb128 0x2
 3612 01b7 0C       		.byte	0xc
 3613 01b8 04       		.byte	0x4
 3614 01b9 6C6F6E67 		.ascii "long double\0"
 3614      20646F75 
 3614      626C6500 
 3615 01c5 06       		.uleb128 0x6
 3616 01c6 676C7574 		.ascii "glutInit_ATEXIT_HACK\0"
 3616      496E6974 
 3616      5F415445 
 3616      5849545F 
 3616      4841434B 
 3617 01db 01       		.byte	0x1
 3618 01dc E601     		.word	0x1e6
 3619 01de 00000000 		.long	LFB0
 3620 01e2 28000000 		.long	LFE0-LFB0
 3621 01e6 01       		.uleb128 0x1
 3622 01e7 9C       		.byte	0x9c
GAS LISTING C:\Users\Marwan\AppData\Local\Temp\ccZ5CEyO.s 			page 99


 3623 01e8 0E020000 		.long	0x20e
 3624 01ec 07       		.uleb128 0x7
 3625 01ed 61726763 		.ascii "argcp\0"
 3625      7000
 3626 01f3 01       		.byte	0x1
 3627 01f4 E601     		.word	0x1e6
 3628 01f6 68010000 		.long	0x168
 3629 01fa 02       		.uleb128 0x2
 3630 01fb 91       		.byte	0x91
 3631 01fc 00       		.sleb128 0
 3632 01fd 07       		.uleb128 0x7
 3633 01fe 61726776 		.ascii "argv\0"
 3633      00
 3634 0203 01       		.byte	0x1
 3635 0204 E601     		.word	0x1e6
 3636 0206 A5010000 		.long	0x1a5
 3637 020a 02       		.uleb128 0x2
 3638 020b 91       		.byte	0x91
 3639 020c 04       		.sleb128 4
 3640 020d 00       		.byte	0
 3641 020e 08       		.uleb128 0x8
 3642 020f 676C7574 		.ascii "glutCreateWindow_ATEXIT_HACK\0"
 3642      43726561 
 3642      74655769 
 3642      6E646F77 
 3642      5F415445 
 3643 022c 01       		.byte	0x1
 3644 022d F701     		.word	0x1f7
 3645 022f D0000000 		.long	0xd0
 3646 0233 28000000 		.long	LFB1
 3647 0237 20000000 		.long	LFE1-LFB1
 3648 023b 01       		.uleb128 0x1
 3649 023c 9C       		.byte	0x9c
 3650 023d 53020000 		.long	0x253
 3651 0241 07       		.uleb128 0x7
 3652 0242 7469746C 		.ascii "title\0"
 3652      6500
 3653 0248 01       		.byte	0x1
 3654 0249 F701     		.word	0x1f7
 3655 024b AB010000 		.long	0x1ab
 3656 024f 02       		.uleb128 0x2
 3657 0250 91       		.byte	0x91
 3658 0251 00       		.sleb128 0
 3659 0252 00       		.byte	0
 3660 0253 08       		.uleb128 0x8
 3661 0254 676C7574 		.ascii "glutCreateMenu_ATEXIT_HACK\0"
 3661      43726561 
 3661      74654D65 
 3661      6E755F41 
 3661      54455849 
 3662 026f 01       		.byte	0x1
 3663 0270 2502     		.word	0x225
 3664 0272 D0000000 		.long	0xd0
 3665 0276 48000000 		.long	LFB2
 3666 027a 20000000 		.long	LFE2-LFB2
 3667 027e 01       		.uleb128 0x1
 3668 027f 9C       		.byte	0x9c
GAS LISTING C:\Users\Marwan\AppData\Local\Temp\ccZ5CEyO.s 			page 100


 3669 0280 95020000 		.long	0x295
 3670 0284 07       		.uleb128 0x7
 3671 0285 66756E63 		.ascii "func\0"
 3671      00
 3672 028a 01       		.byte	0x1
 3673 028b 2502     		.word	0x225
 3674 028d A0020000 		.long	0x2a0
 3675 0291 02       		.uleb128 0x2
 3676 0292 91       		.byte	0x91
 3677 0293 00       		.sleb128 0
 3678 0294 00       		.byte	0
 3679 0295 09       		.uleb128 0x9
 3680 0296 A0020000 		.long	0x2a0
 3681 029a 0A       		.uleb128 0xa
 3682 029b D0000000 		.long	0xd0
 3683 029f 00       		.byte	0
 3684 02a0 04       		.uleb128 0x4
 3685 02a1 04       		.byte	0x4
 3686 02a2 95020000 		.long	0x295
 3687 02a6 0B       		.uleb128 0xb
 3688 02a7 696E6974 		.ascii "init\0"
 3688      00
 3689 02ac 02       		.byte	0x2
 3690 02ad 29       		.byte	0x29
 3691 02ae 5F5A3469 		.ascii "_Z4initv\0"
 3691      6E697476 
 3691      00
 3692 02b7 68000000 		.long	LFB9
 3693 02bb 34000000 		.long	LFE9-LFB9
 3694 02bf 01       		.uleb128 0x1
 3695 02c0 9C       		.byte	0x9c
 3696 02c1 0C       		.uleb128 0xc
 3697 02c2 6B657962 		.ascii "keyboard\0"
 3697      6F617264 
 3697      00
 3698 02cb 02       		.byte	0x2
 3699 02cc 3A       		.byte	0x3a
 3700 02cd 5F5A386B 		.ascii "_Z8keyboardhii\0"
 3700      6579626F 
 3700      61726468 
 3700      696900
 3701 02dc 9C000000 		.long	LFB10
 3702 02e0 81010000 		.long	LFE10-LFB10
 3703 02e4 01       		.uleb128 0x1
 3704 02e5 9C       		.byte	0x9c
 3705 02e6 11030000 		.long	0x311
 3706 02ea 0D       		.uleb128 0xd
 3707 02eb 4B657900 		.ascii "Key\0"
 3708 02ef 02       		.byte	0x2
 3709 02f0 3A       		.byte	0x3a
 3710 02f1 A3000000 		.long	0xa3
 3711 02f5 02       		.uleb128 0x2
 3712 02f6 91       		.byte	0x91
 3713 02f7 6C       		.sleb128 -20
 3714 02f8 0D       		.uleb128 0xd
 3715 02f9 7800     		.ascii "x\0"
 3716 02fb 02       		.byte	0x2
GAS LISTING C:\Users\Marwan\AppData\Local\Temp\ccZ5CEyO.s 			page 101


 3717 02fc 3A       		.byte	0x3a
 3718 02fd D0000000 		.long	0xd0
 3719 0301 02       		.uleb128 0x2
 3720 0302 91       		.byte	0x91
 3721 0303 04       		.sleb128 4
 3722 0304 0D       		.uleb128 0xd
 3723 0305 7900     		.ascii "y\0"
 3724 0307 02       		.byte	0x2
 3725 0308 3A       		.byte	0x3a
 3726 0309 D0000000 		.long	0xd0
 3727 030d 02       		.uleb128 0x2
 3728 030e 91       		.byte	0x91
 3729 030f 08       		.sleb128 8
 3730 0310 00       		.byte	0
 3731 0311 0C       		.uleb128 0xc
 3732 0312 74726961 		.ascii "triangle\0"
 3732      6E676C65 
 3732      00
 3733 031b 02       		.byte	0x2
 3734 031c 6A       		.byte	0x6a
 3735 031d 5F5A3874 		.ascii "_Z8triangleff\0"
 3735      7269616E 
 3735      676C6566 
 3735      6600
 3736 032b 1D020000 		.long	LFB11
 3737 032f DC020000 		.long	LFE11-LFB11
 3738 0333 01       		.uleb128 0x1
 3739 0334 9C       		.byte	0x9c
 3740 0335 52030000 		.long	0x352
 3741 0339 0D       		.uleb128 0xd
 3742 033a 7800     		.ascii "x\0"
 3743 033c 02       		.byte	0x2
 3744 033d 6A       		.byte	0x6a
 3745 033e 0B010000 		.long	0x10b
 3746 0342 02       		.uleb128 0x2
 3747 0343 91       		.byte	0x91
 3748 0344 00       		.sleb128 0
 3749 0345 0D       		.uleb128 0xd
 3750 0346 7900     		.ascii "y\0"
 3751 0348 02       		.byte	0x2
 3752 0349 6A       		.byte	0x6a
 3753 034a 0B010000 		.long	0x10b
 3754 034e 02       		.uleb128 0x2
 3755 034f 91       		.byte	0x91
 3756 0350 04       		.sleb128 4
 3757 0351 00       		.byte	0
 3758 0352 0B       		.uleb128 0xb
 3759 0353 63756265 		.ascii "cube\0"
 3759      00
 3760 0358 02       		.byte	0x2
 3761 0359 93       		.byte	0x93
 3762 035a 5F5A3463 		.ascii "_Z4cubev\0"
 3762      75626576 
 3762      00
 3763 0363 F9040000 		.long	LFB12
 3764 0367 A0030000 		.long	LFE12-LFB12
 3765 036b 01       		.uleb128 0x1
GAS LISTING C:\Users\Marwan\AppData\Local\Temp\ccZ5CEyO.s 			page 102


 3766 036c 9C       		.byte	0x9c
 3767 036d 0B       		.uleb128 0xb
 3768 036e 73706865 		.ascii "sphere\0"
 3768      726500
 3769 0375 02       		.byte	0x2
 3770 0376 C7       		.byte	0xc7
 3771 0377 5F5A3673 		.ascii "_Z6spherev\0"
 3771      70686572 
 3771      657600
 3772 0382 99080000 		.long	LFB13
 3773 0386 77000000 		.long	LFE13-LFB13
 3774 038a 01       		.uleb128 0x1
 3775 038b 9C       		.byte	0x9c
 3776 038c 0C       		.uleb128 0xc
 3777 038d 74726565 		.ascii "tree\0"
 3777      00
 3778 0392 02       		.byte	0x2
 3779 0393 D2       		.byte	0xd2
 3780 0394 5F5A3474 		.ascii "_Z4treeiii\0"
 3780      72656569 
 3780      696900
 3781 039f 10090000 		.long	LFB14
 3782 03a3 EB020000 		.long	LFE14-LFB14
 3783 03a7 01       		.uleb128 0x1
 3784 03a8 9C       		.byte	0x9c
 3785 03a9 D2030000 		.long	0x3d2
 3786 03ad 0D       		.uleb128 0xd
 3787 03ae 7800     		.ascii "x\0"
 3788 03b0 02       		.byte	0x2
 3789 03b1 D2       		.byte	0xd2
 3790 03b2 D0000000 		.long	0xd0
 3791 03b6 02       		.uleb128 0x2
 3792 03b7 91       		.byte	0x91
 3793 03b8 00       		.sleb128 0
 3794 03b9 0D       		.uleb128 0xd
 3795 03ba 7900     		.ascii "y\0"
 3796 03bc 02       		.byte	0x2
 3797 03bd D2       		.byte	0xd2
 3798 03be D0000000 		.long	0xd0
 3799 03c2 02       		.uleb128 0x2
 3800 03c3 91       		.byte	0x91
 3801 03c4 04       		.sleb128 4
 3802 03c5 0D       		.uleb128 0xd
 3803 03c6 7A00     		.ascii "z\0"
 3804 03c8 02       		.byte	0x2
 3805 03c9 D2       		.byte	0xd2
 3806 03ca D0000000 		.long	0xd0
 3807 03ce 02       		.uleb128 0x2
 3808 03cf 91       		.byte	0x91
 3809 03d0 08       		.sleb128 8
 3810 03d1 00       		.byte	0
 3811 03d2 0E       		.uleb128 0xe
 3812 03d3 6D61696E 		.ascii "main\0"
 3812      00
 3813 03d8 02       		.byte	0x2
 3814 03d9 F4       		.byte	0xf4
 3815 03da D0000000 		.long	0xd0
GAS LISTING C:\Users\Marwan\AppData\Local\Temp\ccZ5CEyO.s 			page 103


 3816 03de FB0B0000 		.long	LFB15
 3817 03e2 1B010000 		.long	LFE15-LFB15
 3818 03e6 01       		.uleb128 0x1
 3819 03e7 9C       		.byte	0x9c
 3820 03e8 0B040000 		.long	0x40b
 3821 03ec 0D       		.uleb128 0xd
 3822 03ed 61726763 		.ascii "argc\0"
 3822      00
 3823 03f2 02       		.byte	0x2
 3824 03f3 F4       		.byte	0xf4
 3825 03f4 D0000000 		.long	0xd0
 3826 03f8 02       		.uleb128 0x2
 3827 03f9 91       		.byte	0x91
 3828 03fa 00       		.sleb128 0
 3829 03fb 0D       		.uleb128 0xd
 3830 03fc 61726776 		.ascii "argv\0"
 3830      00
 3831 0401 02       		.byte	0x2
 3832 0402 F4       		.byte	0xf4
 3833 0403 A5010000 		.long	0x1a5
 3834 0407 02       		.uleb128 0x2
 3835 0408 91       		.byte	0x91
 3836 0409 04       		.sleb128 4
 3837 040a 00       		.byte	0
 3838 040b 0F       		.uleb128 0xf
 3839 040c 64697370 		.ascii "display\0"
 3839      6C617900 
 3840 0414 02       		.byte	0x2
 3841 0415 0F01     		.word	0x10f
 3842 0417 5F5A3764 		.ascii "_Z7displayv\0"
 3842      6973706C 
 3842      61797600 
 3843 0423 160D0000 		.long	LFB16
 3844 0427 B7110000 		.long	LFE16-LFB16
 3845 042b 01       		.uleb128 0x1
 3846 042c 9C       		.byte	0x9c
 3847 042d 0F       		.uleb128 0xf
 3848 042e 69646C65 		.ascii "idleFunc\0"
 3848      46756E63 
 3848      00
 3849 0437 02       		.byte	0x2
 3850 0438 6E02     		.word	0x26e
 3851 043a 5F5A3869 		.ascii "_Z8idleFuncv\0"
 3851      646C6546 
 3851      756E6376 
 3851      00
 3852 0447 CD1E0000 		.long	LFB17
 3853 044b 0E000000 		.long	LFE17-LFB17
 3854 044f 01       		.uleb128 0x1
 3855 0450 9C       		.byte	0x9c
 3856 0451 10       		.uleb128 0x10
 3857 0452 74696D65 		.ascii "timer\0"
 3857      7200
 3858 0458 02       		.byte	0x2
 3859 0459 7302     		.word	0x273
 3860 045b 5F5A3574 		.ascii "_Z5timeri\0"
 3860      696D6572 
GAS LISTING C:\Users\Marwan\AppData\Local\Temp\ccZ5CEyO.s 			page 104


 3860      6900
 3861 0465 DB1E0000 		.long	LFB18
 3862 0469 CA000000 		.long	LFE18-LFB18
 3863 046d 01       		.uleb128 0x1
 3864 046e 9C       		.byte	0x9c
 3865 046f 7C040000 		.long	0x47c
 3866 0473 11       		.uleb128 0x11
 3867 0474 D0000000 		.long	0xd0
 3868 0478 02       		.uleb128 0x2
 3869 0479 91       		.byte	0x91
 3870 047a 00       		.sleb128 0
 3871 047b 00       		.byte	0
 3872 047c 10       		.uleb128 0x10
 3873 047d 72657368 		.ascii "reshape\0"
 3873      61706500 
 3874 0485 02       		.byte	0x2
 3875 0486 8202     		.word	0x282
 3876 0488 5F5A3772 		.ascii "_Z7reshapeii\0"
 3876      65736861 
 3876      70656969 
 3876      00
 3877 0495 A51F0000 		.long	LFB19
 3878 0499 82000000 		.long	LFE19-LFB19
 3879 049d 01       		.uleb128 0x1
 3880 049e 9C       		.byte	0x9c
 3881 049f BE040000 		.long	0x4be
 3882 04a3 07       		.uleb128 0x7
 3883 04a4 7700     		.ascii "w\0"
 3884 04a6 02       		.byte	0x2
 3885 04a7 8202     		.word	0x282
 3886 04a9 D0000000 		.long	0xd0
 3887 04ad 02       		.uleb128 0x2
 3888 04ae 91       		.byte	0x91
 3889 04af 00       		.sleb128 0
 3890 04b0 07       		.uleb128 0x7
 3891 04b1 6800     		.ascii "h\0"
 3892 04b3 02       		.byte	0x2
 3893 04b4 8202     		.word	0x282
 3894 04b6 D0000000 		.long	0xd0
 3895 04ba 02       		.uleb128 0x2
 3896 04bb 91       		.byte	0x91
 3897 04bc 04       		.sleb128 4
 3898 04bd 00       		.byte	0
 3899 04be 10       		.uleb128 0x10
 3900 04bf 74657874 		.ascii "texture\0"
 3900      75726500 
 3901 04c7 02       		.byte	0x2
 3902 04c8 8E02     		.word	0x28e
 3903 04ca 5F5A3774 		.ascii "_Z7texturev\0"
 3903      65787475 
 3903      72657600 
 3904 04d6 27200000 		.long	LFB20
 3905 04da 2D020000 		.long	LFE20-LFB20
 3906 04de 01       		.uleb128 0x1
 3907 04df 9C       		.byte	0x9c
 3908 04e0 B0050000 		.long	0x5b0
 3909 04e4 12       		.uleb128 0x12
GAS LISTING C:\Users\Marwan\AppData\Local\Temp\ccZ5CEyO.s 			page 105


 3910 04e5 6C696768 		.ascii "light_ambient\0"
 3910      745F616D 
 3910      6269656E 
 3910      7400
 3911 04f3 02       		.byte	0x2
 3912 04f4 9002     		.word	0x290
 3913 04f6 C0050000 		.long	0x5c0
 3914 04fa 02       		.uleb128 0x2
 3915 04fb 91       		.byte	0x91
 3916 04fc 60       		.sleb128 -32
 3917 04fd 12       		.uleb128 0x12
 3918 04fe 6C696768 		.ascii "light_diffuse\0"
 3918      745F6469 
 3918      66667573 
 3918      6500
 3919 050c 02       		.byte	0x2
 3920 050d 9102     		.word	0x291
 3921 050f C5050000 		.long	0x5c5
 3922 0513 02       		.uleb128 0x2
 3923 0514 91       		.byte	0x91
 3924 0515 50       		.sleb128 -48
 3925 0516 12       		.uleb128 0x12
 3926 0517 6C696768 		.ascii "light_specular\0"
 3926      745F7370 
 3926      6563756C 
 3926      617200
 3927 0526 02       		.byte	0x2
 3928 0527 9202     		.word	0x292
 3929 0529 CA050000 		.long	0x5ca
 3930 052d 02       		.uleb128 0x2
 3931 052e 91       		.byte	0x91
 3932 052f 40       		.sleb128 -64
 3933 0530 12       		.uleb128 0x12
 3934 0531 6C696768 		.ascii "light_position\0"
 3934      745F706F 
 3934      73697469 
 3934      6F6E00
 3935 0540 02       		.byte	0x2
 3936 0541 9302     		.word	0x293
 3937 0543 CF050000 		.long	0x5cf
 3938 0547 03       		.uleb128 0x3
 3939 0548 91       		.byte	0x91
 3940 0549 B07F     		.sleb128 -80
 3941 054b 12       		.uleb128 0x12
 3942 054c 6D61745F 		.ascii "mat_ambient\0"
 3942      616D6269 
 3942      656E7400 
 3943 0558 02       		.byte	0x2
 3944 0559 9502     		.word	0x295
 3945 055b D4050000 		.long	0x5d4
 3946 055f 03       		.uleb128 0x3
 3947 0560 91       		.byte	0x91
 3948 0561 A07F     		.sleb128 -96
 3949 0563 12       		.uleb128 0x12
 3950 0564 6D61745F 		.ascii "mat_diffuse\0"
 3950      64696666 
 3950      75736500 
GAS LISTING C:\Users\Marwan\AppData\Local\Temp\ccZ5CEyO.s 			page 106


 3951 0570 02       		.byte	0x2
 3952 0571 9602     		.word	0x296
 3953 0573 D9050000 		.long	0x5d9
 3954 0577 03       		.uleb128 0x3
 3955 0578 91       		.byte	0x91
 3956 0579 907F     		.sleb128 -112
 3957 057b 12       		.uleb128 0x12
 3958 057c 6D61745F 		.ascii "mat_specular\0"
 3958      73706563 
 3958      756C6172 
 3958      00
 3959 0589 02       		.byte	0x2
 3960 058a 9702     		.word	0x297
 3961 058c DE050000 		.long	0x5de
 3962 0590 03       		.uleb128 0x3
 3963 0591 91       		.byte	0x91
 3964 0592 807F     		.sleb128 -128
 3965 0594 12       		.uleb128 0x12
 3966 0595 68696768 		.ascii "high_shininess\0"
 3966      5F736869 
 3966      6E696E65 
 3966      737300
 3967 05a4 02       		.byte	0x2
 3968 05a5 9802     		.word	0x298
 3969 05a7 F3050000 		.long	0x5f3
 3970 05ab 03       		.uleb128 0x3
 3971 05ac 91       		.byte	0x91
 3972 05ad FC7E     		.sleb128 -132
 3973 05af 00       		.byte	0
 3974 05b0 13       		.uleb128 0x13
 3975 05b1 0B010000 		.long	0x10b
 3976 05b5 C0050000 		.long	0x5c0
 3977 05b9 14       		.uleb128 0x14
 3978 05ba 99010000 		.long	0x199
 3979 05be 03       		.byte	0x3
 3980 05bf 00       		.byte	0
 3981 05c0 05       		.uleb128 0x5
 3982 05c1 B0050000 		.long	0x5b0
 3983 05c5 05       		.uleb128 0x5
 3984 05c6 B0050000 		.long	0x5b0
 3985 05ca 05       		.uleb128 0x5
 3986 05cb B0050000 		.long	0x5b0
 3987 05cf 05       		.uleb128 0x5
 3988 05d0 B0050000 		.long	0x5b0
 3989 05d4 05       		.uleb128 0x5
 3990 05d5 B0050000 		.long	0x5b0
 3991 05d9 05       		.uleb128 0x5
 3992 05da B0050000 		.long	0x5b0
 3993 05de 05       		.uleb128 0x5
 3994 05df B0050000 		.long	0x5b0
 3995 05e3 13       		.uleb128 0x13
 3996 05e4 0B010000 		.long	0x10b
 3997 05e8 F3050000 		.long	0x5f3
 3998 05ec 14       		.uleb128 0x14
 3999 05ed 99010000 		.long	0x199
 4000 05f1 00       		.byte	0
 4001 05f2 00       		.byte	0
GAS LISTING C:\Users\Marwan\AppData\Local\Temp\ccZ5CEyO.s 			page 107


 4002 05f3 05       		.uleb128 0x5
 4003 05f4 E3050000 		.long	0x5e3
 4004 05f8 15       		.uleb128 0x15
 4005 05f9 736C6963 		.ascii "slices\0"
 4005      657300
 4006 0600 02       		.byte	0x2
 4007 0601 09       		.byte	0x9
 4008 0602 D0000000 		.long	0xd0
 4009 0606 05       		.uleb128 0x5
 4010 0607 03       		.byte	0x3
 4011 0608 00000000 		.long	__ZL6slices
 4012 060c 15       		.uleb128 0x15
 4013 060d 73746163 		.ascii "stacks\0"
 4013      6B7300
 4014 0614 02       		.byte	0x2
 4015 0615 0A       		.byte	0xa
 4016 0616 D0000000 		.long	0xd0
 4017 061a 05       		.uleb128 0x5
 4018 061b 03       		.byte	0x3
 4019 061c 04000000 		.long	__ZL6stacks
 4020 0620 15       		.uleb128 0x15
 4021 0621 75736546 		.ascii "useFog\0"
 4021      6F6700
 4022 0628 02       		.byte	0x2
 4023 0629 0B       		.byte	0xb
 4024 062a D0000000 		.long	0xd0
 4025 062e 05       		.uleb128 0x5
 4026 062f 03       		.byte	0x3
 4027 0630 58000000 		.long	__ZL6useFog
 4028 0634 16       		.uleb128 0x16
 4029 0635 6D6F6F6E 		.ascii "moonx\0"
 4029      7800
 4030 063b 02       		.byte	0x2
 4031 063c 0C       		.byte	0xc
 4032 063d 0B010000 		.long	0x10b
 4033 0641 05       		.uleb128 0x5
 4034 0642 03       		.byte	0x3
 4035 0643 00000000 		.long	_moonx
 4036 0647 16       		.uleb128 0x16
 4037 0648 6D6F6F6E 		.ascii "moony\0"
 4037      7900
 4038 064e 02       		.byte	0x2
 4039 064f 0C       		.byte	0xc
 4040 0650 0B010000 		.long	0x10b
 4041 0654 05       		.uleb128 0x5
 4042 0655 03       		.byte	0x3
 4043 0656 04000000 		.long	_moony
 4044 065a 16       		.uleb128 0x16
 4045 065b 73756E78 		.ascii "sunx\0"
 4045      00
 4046 0660 02       		.byte	0x2
 4047 0661 0D       		.byte	0xd
 4048 0662 0B010000 		.long	0x10b
 4049 0666 05       		.uleb128 0x5
 4050 0667 03       		.byte	0x3
 4051 0668 08000000 		.long	_sunx
 4052 066c 16       		.uleb128 0x16
GAS LISTING C:\Users\Marwan\AppData\Local\Temp\ccZ5CEyO.s 			page 108


 4053 066d 73756E79 		.ascii "suny\0"
 4053      00
 4054 0672 02       		.byte	0x2
 4055 0673 0D       		.byte	0xd
 4056 0674 0B010000 		.long	0x10b
 4057 0678 05       		.uleb128 0x5
 4058 0679 03       		.byte	0x3
 4059 067a 0C000000 		.long	_suny
 4060 067e 16       		.uleb128 0x16
 4061 067f 626F6174 		.ascii "boatx\0"
 4061      7800
 4062 0685 02       		.byte	0x2
 4063 0686 0E       		.byte	0xe
 4064 0687 0B010000 		.long	0x10b
 4065 068b 05       		.uleb128 0x5
 4066 068c 03       		.byte	0x3
 4067 068d 10000000 		.long	_boatx
 4068 0691 16       		.uleb128 0x16
 4069 0692 636C6F75 		.ascii "cloudsx\0"
 4069      64737800 
 4070 069a 02       		.byte	0x2
 4071 069b 0F       		.byte	0xf
 4072 069c 0B010000 		.long	0x10b
 4073 06a0 05       		.uleb128 0x5
 4074 06a1 03       		.byte	0x3
 4075 06a2 14000000 		.long	_cloudsx
 4076 06a6 16       		.uleb128 0x16
 4077 06a7 434F4C4F 		.ascii "COLOR\0"
 4077      5200
 4078 06ad 02       		.byte	0x2
 4079 06ae 10       		.byte	0x10
 4080 06af D0000000 		.long	0xd0
 4081 06b3 05       		.uleb128 0x5
 4082 06b4 03       		.byte	0x3
 4083 06b5 18000000 		.long	_COLOR
 4084 06b9 16       		.uleb128 0x16
 4085 06ba 64697265 		.ascii "direction\0"
 4085      6374696F 
 4085      6E00
 4086 06c4 02       		.byte	0x2
 4087 06c5 11       		.byte	0x11
 4088 06c6 D0000000 		.long	0xd0
 4089 06ca 05       		.uleb128 0x5
 4090 06cb 03       		.byte	0x3
 4091 06cc 08000000 		.long	_direction
 4092 06d0 16       		.uleb128 0x16
 4093 06d1 72656400 		.ascii "red\0"
 4094 06d5 02       		.byte	0x2
 4095 06d6 12       		.byte	0x12
 4096 06d7 0B010000 		.long	0x10b
 4097 06db 05       		.uleb128 0x5
 4098 06dc 03       		.byte	0x3
 4099 06dd 0C000000 		.long	_red
 4100 06e1 16       		.uleb128 0x16
 4101 06e2 67726565 		.ascii "green\0"
 4101      6E00
 4102 06e8 02       		.byte	0x2
GAS LISTING C:\Users\Marwan\AppData\Local\Temp\ccZ5CEyO.s 			page 109


 4103 06e9 12       		.byte	0x12
 4104 06ea 0B010000 		.long	0x10b
 4105 06ee 05       		.uleb128 0x5
 4106 06ef 03       		.byte	0x3
 4107 06f0 10000000 		.long	_green
 4108 06f4 16       		.uleb128 0x16
 4109 06f5 626C7565 		.ascii "blue\0"
 4109      00
 4110 06fa 02       		.byte	0x2
 4111 06fb 12       		.byte	0x12
 4112 06fc 0B010000 		.long	0x10b
 4113 0700 05       		.uleb128 0x5
 4114 0701 03       		.byte	0x3
 4115 0702 14000000 		.long	_blue
 4116 0706 16       		.uleb128 0x16
 4117 0707 616C7068 		.ascii "alpha\0"
 4117      6100
 4118 070d 02       		.byte	0x2
 4119 070e 12       		.byte	0x12
 4120 070f 0B010000 		.long	0x10b
 4121 0713 05       		.uleb128 0x5
 4122 0714 03       		.byte	0x3
 4123 0715 1C000000 		.long	_alpha
 4124 0719 16       		.uleb128 0x16
 4125 071a 73756E66 		.ascii "sunflag\0"
 4125      6C616700 
 4126 0722 02       		.byte	0x2
 4127 0723 14       		.byte	0x14
 4128 0724 D0000000 		.long	0xd0
 4129 0728 05       		.uleb128 0x5
 4130 0729 03       		.byte	0x3
 4131 072a 18000000 		.long	_sunflag
 4132 072e 16       		.uleb128 0x16
 4133 072f 616E676C 		.ascii "anglesun\0"
 4133      6573756E 
 4133      00
 4134 0738 02       		.byte	0x2
 4135 0739 15       		.byte	0x15
 4136 073a 24010000 		.long	0x124
 4137 073e 05       		.uleb128 0x5
 4138 073f 03       		.byte	0x3
 4139 0740 20000000 		.long	_anglesun
 4140 0744 16       		.uleb128 0x16
 4141 0745 6D6F6F6E 		.ascii "moonflag\0"
 4141      666C6167 
 4141      00
 4142 074e 02       		.byte	0x2
 4143 074f 16       		.byte	0x16
 4144 0750 D0000000 		.long	0xd0
 4145 0754 05       		.uleb128 0x5
 4146 0755 03       		.byte	0x3
 4147 0756 1C000000 		.long	_moonflag
 4148 075a 16       		.uleb128 0x16
 4149 075b 626F6174 		.ascii "boatflag\0"
 4149      666C6167 
 4149      00
 4150 0764 02       		.byte	0x2
GAS LISTING C:\Users\Marwan\AppData\Local\Temp\ccZ5CEyO.s 			page 110


 4151 0765 17       		.byte	0x17
 4152 0766 D0000000 		.long	0xd0
 4153 076a 05       		.uleb128 0x5
 4154 076b 03       		.byte	0x3
 4155 076c 20000000 		.long	_boatflag
 4156 0770 16       		.uleb128 0x16
 4157 0771 616E676C 		.ascii "angle\0"
 4157      6500
 4158 0777 02       		.byte	0x2
 4159 0778 18       		.byte	0x18
 4160 0779 0B010000 		.long	0x10b
 4161 077d 05       		.uleb128 0x5
 4162 077e 03       		.byte	0x3
 4163 077f 28000000 		.long	_angle
 4164 0783 16       		.uleb128 0x16
 4165 0784 7800     		.ascii "x\0"
 4166 0786 02       		.byte	0x2
 4167 0787 1E       		.byte	0x1e
 4168 0788 0B010000 		.long	0x10b
 4169 078c 05       		.uleb128 0x5
 4170 078d 03       		.byte	0x3
 4171 078e 2C000000 		.long	_x
 4172 0792 16       		.uleb128 0x16
 4173 0793 63756265 		.ascii "cubesize\0"
 4173      73697A65 
 4173      00
 4174 079c 02       		.byte	0x2
 4175 079d 1F       		.byte	0x1f
 4176 079e 24010000 		.long	0x124
 4177 07a2 05       		.uleb128 0x5
 4178 07a3 03       		.byte	0x3
 4179 07a4 30000000 		.long	_cubesize
 4180 07a8 16       		.uleb128 0x16
 4181 07a9 666C6167 		.ascii "flag\0"
 4181      00
 4182 07ae 02       		.byte	0x2
 4183 07af 20       		.byte	0x20
 4184 07b0 D0000000 		.long	0xd0
 4185 07b4 05       		.uleb128 0x5
 4186 07b5 03       		.byte	0x3
 4187 07b6 24000000 		.long	_flag
 4188 07ba 16       		.uleb128 0x16
 4189 07bb 726F7461 		.ascii "rotatee\0"
 4189      74656500 
 4190 07c3 02       		.byte	0x2
 4191 07c4 21       		.byte	0x21
 4192 07c5 D0000000 		.long	0xd0
 4193 07c9 05       		.uleb128 0x5
 4194 07ca 03       		.byte	0x3
 4195 07cb 38000000 		.long	_rotatee
 4196 07cf 16       		.uleb128 0x16
 4197 07d0 7472616E 		.ascii "translateX\0"
 4197      736C6174 
 4197      655800
 4198 07db 02       		.byte	0x2
 4199 07dc 22       		.byte	0x22
 4200 07dd D0000000 		.long	0xd0
GAS LISTING C:\Users\Marwan\AppData\Local\Temp\ccZ5CEyO.s 			page 111


 4201 07e1 05       		.uleb128 0x5
 4202 07e2 03       		.byte	0x3
 4203 07e3 3C000000 		.long	_translateX
 4204 07e7 16       		.uleb128 0x16
 4205 07e8 7472616E 		.ascii "translateY\0"
 4205      736C6174 
 4205      655900
 4206 07f3 02       		.byte	0x2
 4207 07f4 22       		.byte	0x22
 4208 07f5 D0000000 		.long	0xd0
 4209 07f9 05       		.uleb128 0x5
 4210 07fa 03       		.byte	0x3
 4211 07fb 28000000 		.long	_translateY
 4212 07ff 16       		.uleb128 0x16
 4213 0800 7472616E 		.ascii "translateY2\0"
 4213      736C6174 
 4213      65593200 
 4214 080c 02       		.byte	0x2
 4215 080d 23       		.byte	0x23
 4216 080e D0000000 		.long	0xd0
 4217 0812 05       		.uleb128 0x5
 4218 0813 03       		.byte	0x3
 4219 0814 2C000000 		.long	_translateY2
 4220 0818 16       		.uleb128 0x16
 4221 0819 7373697A 		.ascii "ssize\0"
 4221      6500
 4222 081f 02       		.byte	0x2
 4223 0820 25       		.byte	0x25
 4224 0821 24010000 		.long	0x124
 4225 0825 05       		.uleb128 0x5
 4226 0826 03       		.byte	0x3
 4227 0827 30000000 		.long	_ssize
 4228 082b 16       		.uleb128 0x16
 4229 082c 7363616C 		.ascii "scale\0"
 4229      6500
 4230 0832 02       		.byte	0x2
 4231 0833 26       		.byte	0x26
 4232 0834 24010000 		.long	0x124
 4233 0838 05       		.uleb128 0x5
 4234 0839 03       		.byte	0x3
 4235 083a 40000000 		.long	_scale
 4236 083e 16       		.uleb128 0x16
 4237 083f 78526F74 		.ascii "xRotated\0"
 4237      61746564 
 4237      00
 4238 0848 02       		.byte	0x2
 4239 0849 2B       		.byte	0x2b
 4240 084a 0B010000 		.long	0x10b
 4241 084e 05       		.uleb128 0x5
 4242 084f 03       		.byte	0x3
 4243 0850 38000000 		.long	_xRotated
 4244 0854 16       		.uleb128 0x16
 4245 0855 79526F74 		.ascii "yRotated\0"
 4245      61746564 
 4245      00
 4246 085e 02       		.byte	0x2
 4247 085f 2B       		.byte	0x2b
GAS LISTING C:\Users\Marwan\AppData\Local\Temp\ccZ5CEyO.s 			page 112


 4248 0860 0B010000 		.long	0x10b
 4249 0864 05       		.uleb128 0x5
 4250 0865 03       		.byte	0x3
 4251 0866 48000000 		.long	_yRotated
 4252 086a 16       		.uleb128 0x16
 4253 086b 7A526F74 		.ascii "zRotated\0"
 4253      61746564 
 4253      00
 4254 0874 02       		.byte	0x2
 4255 0875 2B       		.byte	0x2b
 4256 0876 0B010000 		.long	0x10b
 4257 087a 05       		.uleb128 0x5
 4258 087b 03       		.byte	0x3
 4259 087c 4C000000 		.long	_zRotated
 4260 0880 16       		.uleb128 0x16
 4261 0881 616E676C 		.ascii "anglePyramid\0"
 4261      65507972 
 4261      616D6964 
 4261      00
 4262 088e 02       		.byte	0x2
 4263 088f 2D       		.byte	0x2d
 4264 0890 FC000000 		.long	0xfc
 4265 0894 05       		.uleb128 0x5
 4266 0895 03       		.byte	0x3
 4267 0896 50000000 		.long	_anglePyramid
 4268 089a 16       		.uleb128 0x16
 4269 089b 616E676C 		.ascii "angleCube\0"
 4269      65437562 
 4269      6500
 4270 08a5 02       		.byte	0x2
 4271 08a6 2E       		.byte	0x2e
 4272 08a7 FC000000 		.long	0xfc
 4273 08ab 05       		.uleb128 0x5
 4274 08ac 03       		.byte	0x3
 4275 08ad 54000000 		.long	_angleCube
 4276 08b1 16       		.uleb128 0x16
 4277 08b2 72656672 		.ascii "refreshMills\0"
 4277      6573684D 
 4277      696C6C73 
 4277      00
 4278 08bf 02       		.byte	0x2
 4279 08c0 2F       		.byte	0x2f
 4280 08c1 D0000000 		.long	0xd0
 4281 08c5 05       		.uleb128 0x5
 4282 08c6 03       		.byte	0x3
 4283 08c7 3C000000 		.long	_refreshMills
 4284 08cb 00       		.byte	0
 4285              		.section	.debug_abbrev,"dr"
 4286              	Ldebug_abbrev0:
 4287 0000 01       		.uleb128 0x1
 4288 0001 11       		.uleb128 0x11
 4289 0002 01       		.byte	0x1
 4290 0003 25       		.uleb128 0x25
 4291 0004 08       		.uleb128 0x8
 4292 0005 13       		.uleb128 0x13
 4293 0006 0B       		.uleb128 0xb
 4294 0007 03       		.uleb128 0x3
GAS LISTING C:\Users\Marwan\AppData\Local\Temp\ccZ5CEyO.s 			page 113


 4295 0008 08       		.uleb128 0x8
 4296 0009 11       		.uleb128 0x11
 4297 000a 01       		.uleb128 0x1
 4298 000b 12       		.uleb128 0x12
 4299 000c 06       		.uleb128 0x6
 4300 000d 10       		.uleb128 0x10
 4301 000e 17       		.uleb128 0x17
 4302 000f 00       		.byte	0
 4303 0010 00       		.byte	0
 4304 0011 02       		.uleb128 0x2
 4305 0012 24       		.uleb128 0x24
 4306 0013 00       		.byte	0
 4307 0014 0B       		.uleb128 0xb
 4308 0015 0B       		.uleb128 0xb
 4309 0016 3E       		.uleb128 0x3e
 4310 0017 0B       		.uleb128 0xb
 4311 0018 03       		.uleb128 0x3
 4312 0019 08       		.uleb128 0x8
 4313 001a 00       		.byte	0
 4314 001b 00       		.byte	0
 4315 001c 03       		.uleb128 0x3
 4316 001d 16       		.uleb128 0x16
 4317 001e 00       		.byte	0
 4318 001f 03       		.uleb128 0x3
 4319 0020 08       		.uleb128 0x8
 4320 0021 3A       		.uleb128 0x3a
 4321 0022 0B       		.uleb128 0xb
 4322 0023 3B       		.uleb128 0x3b
 4323 0024 0B       		.uleb128 0xb
 4324 0025 49       		.uleb128 0x49
 4325 0026 13       		.uleb128 0x13
 4326 0027 00       		.byte	0
 4327 0028 00       		.byte	0
 4328 0029 04       		.uleb128 0x4
 4329 002a 0F       		.uleb128 0xf
 4330 002b 00       		.byte	0
 4331 002c 0B       		.uleb128 0xb
 4332 002d 0B       		.uleb128 0xb
 4333 002e 49       		.uleb128 0x49
 4334 002f 13       		.uleb128 0x13
 4335 0030 00       		.byte	0
 4336 0031 00       		.byte	0
 4337 0032 05       		.uleb128 0x5
 4338 0033 26       		.uleb128 0x26
 4339 0034 00       		.byte	0
 4340 0035 49       		.uleb128 0x49
 4341 0036 13       		.uleb128 0x13
 4342 0037 00       		.byte	0
 4343 0038 00       		.byte	0
 4344 0039 06       		.uleb128 0x6
 4345 003a 2E       		.uleb128 0x2e
 4346 003b 01       		.byte	0x1
 4347 003c 03       		.uleb128 0x3
 4348 003d 08       		.uleb128 0x8
 4349 003e 3A       		.uleb128 0x3a
 4350 003f 0B       		.uleb128 0xb
 4351 0040 3B       		.uleb128 0x3b
GAS LISTING C:\Users\Marwan\AppData\Local\Temp\ccZ5CEyO.s 			page 114


 4352 0041 05       		.uleb128 0x5
 4353 0042 11       		.uleb128 0x11
 4354 0043 01       		.uleb128 0x1
 4355 0044 12       		.uleb128 0x12
 4356 0045 06       		.uleb128 0x6
 4357 0046 40       		.uleb128 0x40
 4358 0047 18       		.uleb128 0x18
 4359 0048 9642     		.uleb128 0x2116
 4360 004a 19       		.uleb128 0x19
 4361 004b 01       		.uleb128 0x1
 4362 004c 13       		.uleb128 0x13
 4363 004d 00       		.byte	0
 4364 004e 00       		.byte	0
 4365 004f 07       		.uleb128 0x7
 4366 0050 05       		.uleb128 0x5
 4367 0051 00       		.byte	0
 4368 0052 03       		.uleb128 0x3
 4369 0053 08       		.uleb128 0x8
 4370 0054 3A       		.uleb128 0x3a
 4371 0055 0B       		.uleb128 0xb
 4372 0056 3B       		.uleb128 0x3b
 4373 0057 05       		.uleb128 0x5
 4374 0058 49       		.uleb128 0x49
 4375 0059 13       		.uleb128 0x13
 4376 005a 02       		.uleb128 0x2
 4377 005b 18       		.uleb128 0x18
 4378 005c 00       		.byte	0
 4379 005d 00       		.byte	0
 4380 005e 08       		.uleb128 0x8
 4381 005f 2E       		.uleb128 0x2e
 4382 0060 01       		.byte	0x1
 4383 0061 03       		.uleb128 0x3
 4384 0062 08       		.uleb128 0x8
 4385 0063 3A       		.uleb128 0x3a
 4386 0064 0B       		.uleb128 0xb
 4387 0065 3B       		.uleb128 0x3b
 4388 0066 05       		.uleb128 0x5
 4389 0067 49       		.uleb128 0x49
 4390 0068 13       		.uleb128 0x13
 4391 0069 11       		.uleb128 0x11
 4392 006a 01       		.uleb128 0x1
 4393 006b 12       		.uleb128 0x12
 4394 006c 06       		.uleb128 0x6
 4395 006d 40       		.uleb128 0x40
 4396 006e 18       		.uleb128 0x18
 4397 006f 9642     		.uleb128 0x2116
 4398 0071 19       		.uleb128 0x19
 4399 0072 01       		.uleb128 0x1
 4400 0073 13       		.uleb128 0x13
 4401 0074 00       		.byte	0
 4402 0075 00       		.byte	0
 4403 0076 09       		.uleb128 0x9
 4404 0077 15       		.uleb128 0x15
 4405 0078 01       		.byte	0x1
 4406 0079 01       		.uleb128 0x1
 4407 007a 13       		.uleb128 0x13
 4408 007b 00       		.byte	0
GAS LISTING C:\Users\Marwan\AppData\Local\Temp\ccZ5CEyO.s 			page 115


 4409 007c 00       		.byte	0
 4410 007d 0A       		.uleb128 0xa
 4411 007e 05       		.uleb128 0x5
 4412 007f 00       		.byte	0
 4413 0080 49       		.uleb128 0x49
 4414 0081 13       		.uleb128 0x13
 4415 0082 00       		.byte	0
 4416 0083 00       		.byte	0
 4417 0084 0B       		.uleb128 0xb
 4418 0085 2E       		.uleb128 0x2e
 4419 0086 00       		.byte	0
 4420 0087 3F       		.uleb128 0x3f
 4421 0088 19       		.uleb128 0x19
 4422 0089 03       		.uleb128 0x3
 4423 008a 08       		.uleb128 0x8
 4424 008b 3A       		.uleb128 0x3a
 4425 008c 0B       		.uleb128 0xb
 4426 008d 3B       		.uleb128 0x3b
 4427 008e 0B       		.uleb128 0xb
 4428 008f 6E       		.uleb128 0x6e
 4429 0090 08       		.uleb128 0x8
 4430 0091 11       		.uleb128 0x11
 4431 0092 01       		.uleb128 0x1
 4432 0093 12       		.uleb128 0x12
 4433 0094 06       		.uleb128 0x6
 4434 0095 40       		.uleb128 0x40
 4435 0096 18       		.uleb128 0x18
 4436 0097 9642     		.uleb128 0x2116
 4437 0099 19       		.uleb128 0x19
 4438 009a 00       		.byte	0
 4439 009b 00       		.byte	0
 4440 009c 0C       		.uleb128 0xc
 4441 009d 2E       		.uleb128 0x2e
 4442 009e 01       		.byte	0x1
 4443 009f 3F       		.uleb128 0x3f
 4444 00a0 19       		.uleb128 0x19
 4445 00a1 03       		.uleb128 0x3
 4446 00a2 08       		.uleb128 0x8
 4447 00a3 3A       		.uleb128 0x3a
 4448 00a4 0B       		.uleb128 0xb
 4449 00a5 3B       		.uleb128 0x3b
 4450 00a6 0B       		.uleb128 0xb
 4451 00a7 6E       		.uleb128 0x6e
 4452 00a8 08       		.uleb128 0x8
 4453 00a9 11       		.uleb128 0x11
 4454 00aa 01       		.uleb128 0x1
 4455 00ab 12       		.uleb128 0x12
 4456 00ac 06       		.uleb128 0x6
 4457 00ad 40       		.uleb128 0x40
 4458 00ae 18       		.uleb128 0x18
 4459 00af 9642     		.uleb128 0x2116
 4460 00b1 19       		.uleb128 0x19
 4461 00b2 01       		.uleb128 0x1
 4462 00b3 13       		.uleb128 0x13
 4463 00b4 00       		.byte	0
 4464 00b5 00       		.byte	0
 4465 00b6 0D       		.uleb128 0xd
GAS LISTING C:\Users\Marwan\AppData\Local\Temp\ccZ5CEyO.s 			page 116


 4466 00b7 05       		.uleb128 0x5
 4467 00b8 00       		.byte	0
 4468 00b9 03       		.uleb128 0x3
 4469 00ba 08       		.uleb128 0x8
 4470 00bb 3A       		.uleb128 0x3a
 4471 00bc 0B       		.uleb128 0xb
 4472 00bd 3B       		.uleb128 0x3b
 4473 00be 0B       		.uleb128 0xb
 4474 00bf 49       		.uleb128 0x49
 4475 00c0 13       		.uleb128 0x13
 4476 00c1 02       		.uleb128 0x2
 4477 00c2 18       		.uleb128 0x18
 4478 00c3 00       		.byte	0
 4479 00c4 00       		.byte	0
 4480 00c5 0E       		.uleb128 0xe
 4481 00c6 2E       		.uleb128 0x2e
 4482 00c7 01       		.byte	0x1
 4483 00c8 3F       		.uleb128 0x3f
 4484 00c9 19       		.uleb128 0x19
 4485 00ca 03       		.uleb128 0x3
 4486 00cb 08       		.uleb128 0x8
 4487 00cc 3A       		.uleb128 0x3a
 4488 00cd 0B       		.uleb128 0xb
 4489 00ce 3B       		.uleb128 0x3b
 4490 00cf 0B       		.uleb128 0xb
 4491 00d0 49       		.uleb128 0x49
 4492 00d1 13       		.uleb128 0x13
 4493 00d2 11       		.uleb128 0x11
 4494 00d3 01       		.uleb128 0x1
 4495 00d4 12       		.uleb128 0x12
 4496 00d5 06       		.uleb128 0x6
 4497 00d6 40       		.uleb128 0x40
 4498 00d7 18       		.uleb128 0x18
 4499 00d8 9642     		.uleb128 0x2116
 4500 00da 19       		.uleb128 0x19
 4501 00db 01       		.uleb128 0x1
 4502 00dc 13       		.uleb128 0x13
 4503 00dd 00       		.byte	0
 4504 00de 00       		.byte	0
 4505 00df 0F       		.uleb128 0xf
 4506 00e0 2E       		.uleb128 0x2e
 4507 00e1 00       		.byte	0
 4508 00e2 3F       		.uleb128 0x3f
 4509 00e3 19       		.uleb128 0x19
 4510 00e4 03       		.uleb128 0x3
 4511 00e5 08       		.uleb128 0x8
 4512 00e6 3A       		.uleb128 0x3a
 4513 00e7 0B       		.uleb128 0xb
 4514 00e8 3B       		.uleb128 0x3b
 4515 00e9 05       		.uleb128 0x5
 4516 00ea 6E       		.uleb128 0x6e
 4517 00eb 08       		.uleb128 0x8
 4518 00ec 11       		.uleb128 0x11
 4519 00ed 01       		.uleb128 0x1
 4520 00ee 12       		.uleb128 0x12
 4521 00ef 06       		.uleb128 0x6
 4522 00f0 40       		.uleb128 0x40
GAS LISTING C:\Users\Marwan\AppData\Local\Temp\ccZ5CEyO.s 			page 117


 4523 00f1 18       		.uleb128 0x18
 4524 00f2 9642     		.uleb128 0x2116
 4525 00f4 19       		.uleb128 0x19
 4526 00f5 00       		.byte	0
 4527 00f6 00       		.byte	0
 4528 00f7 10       		.uleb128 0x10
 4529 00f8 2E       		.uleb128 0x2e
 4530 00f9 01       		.byte	0x1
 4531 00fa 3F       		.uleb128 0x3f
 4532 00fb 19       		.uleb128 0x19
 4533 00fc 03       		.uleb128 0x3
 4534 00fd 08       		.uleb128 0x8
 4535 00fe 3A       		.uleb128 0x3a
 4536 00ff 0B       		.uleb128 0xb
 4537 0100 3B       		.uleb128 0x3b
 4538 0101 05       		.uleb128 0x5
 4539 0102 6E       		.uleb128 0x6e
 4540 0103 08       		.uleb128 0x8
 4541 0104 11       		.uleb128 0x11
 4542 0105 01       		.uleb128 0x1
 4543 0106 12       		.uleb128 0x12
 4544 0107 06       		.uleb128 0x6
 4545 0108 40       		.uleb128 0x40
 4546 0109 18       		.uleb128 0x18
 4547 010a 9642     		.uleb128 0x2116
 4548 010c 19       		.uleb128 0x19
 4549 010d 01       		.uleb128 0x1
 4550 010e 13       		.uleb128 0x13
 4551 010f 00       		.byte	0
 4552 0110 00       		.byte	0
 4553 0111 11       		.uleb128 0x11
 4554 0112 05       		.uleb128 0x5
 4555 0113 00       		.byte	0
 4556 0114 49       		.uleb128 0x49
 4557 0115 13       		.uleb128 0x13
 4558 0116 02       		.uleb128 0x2
 4559 0117 18       		.uleb128 0x18
 4560 0118 00       		.byte	0
 4561 0119 00       		.byte	0
 4562 011a 12       		.uleb128 0x12
 4563 011b 34       		.uleb128 0x34
 4564 011c 00       		.byte	0
 4565 011d 03       		.uleb128 0x3
 4566 011e 08       		.uleb128 0x8
 4567 011f 3A       		.uleb128 0x3a
 4568 0120 0B       		.uleb128 0xb
 4569 0121 3B       		.uleb128 0x3b
 4570 0122 05       		.uleb128 0x5
 4571 0123 49       		.uleb128 0x49
 4572 0124 13       		.uleb128 0x13
 4573 0125 02       		.uleb128 0x2
 4574 0126 18       		.uleb128 0x18
 4575 0127 00       		.byte	0
 4576 0128 00       		.byte	0
 4577 0129 13       		.uleb128 0x13
 4578 012a 01       		.uleb128 0x1
 4579 012b 01       		.byte	0x1
GAS LISTING C:\Users\Marwan\AppData\Local\Temp\ccZ5CEyO.s 			page 118


 4580 012c 49       		.uleb128 0x49
 4581 012d 13       		.uleb128 0x13
 4582 012e 01       		.uleb128 0x1
 4583 012f 13       		.uleb128 0x13
 4584 0130 00       		.byte	0
 4585 0131 00       		.byte	0
 4586 0132 14       		.uleb128 0x14
 4587 0133 21       		.uleb128 0x21
 4588 0134 00       		.byte	0
 4589 0135 49       		.uleb128 0x49
 4590 0136 13       		.uleb128 0x13
 4591 0137 2F       		.uleb128 0x2f
 4592 0138 0B       		.uleb128 0xb
 4593 0139 00       		.byte	0
 4594 013a 00       		.byte	0
 4595 013b 15       		.uleb128 0x15
 4596 013c 34       		.uleb128 0x34
 4597 013d 00       		.byte	0
 4598 013e 03       		.uleb128 0x3
 4599 013f 08       		.uleb128 0x8
 4600 0140 3A       		.uleb128 0x3a
 4601 0141 0B       		.uleb128 0xb
 4602 0142 3B       		.uleb128 0x3b
 4603 0143 0B       		.uleb128 0xb
 4604 0144 49       		.uleb128 0x49
 4605 0145 13       		.uleb128 0x13
 4606 0146 02       		.uleb128 0x2
 4607 0147 18       		.uleb128 0x18
 4608 0148 00       		.byte	0
 4609 0149 00       		.byte	0
 4610 014a 16       		.uleb128 0x16
 4611 014b 34       		.uleb128 0x34
 4612 014c 00       		.byte	0
 4613 014d 03       		.uleb128 0x3
 4614 014e 08       		.uleb128 0x8
 4615 014f 3A       		.uleb128 0x3a
 4616 0150 0B       		.uleb128 0xb
 4617 0151 3B       		.uleb128 0x3b
 4618 0152 0B       		.uleb128 0xb
 4619 0153 49       		.uleb128 0x49
 4620 0154 13       		.uleb128 0x13
 4621 0155 3F       		.uleb128 0x3f
 4622 0156 19       		.uleb128 0x19
 4623 0157 02       		.uleb128 0x2
 4624 0158 18       		.uleb128 0x18
 4625 0159 00       		.byte	0
 4626 015a 00       		.byte	0
 4627 015b 00       		.byte	0
 4628              		.section	.debug_aranges,"dr"
 4629 0000 1C000000 		.long	0x1c
 4630 0004 0200     		.word	0x2
 4631 0006 00000000 		.secrel32	Ldebug_info0
 4632 000a 04       		.byte	0x4
 4633 000b 00       		.byte	0
 4634 000c 0000     		.word	0
 4635 000e 0000     		.word	0
 4636 0010 00000000 		.long	Ltext0
GAS LISTING C:\Users\Marwan\AppData\Local\Temp\ccZ5CEyO.s 			page 119


 4637 0014 54220000 		.long	Letext0-Ltext0
 4638 0018 00000000 		.long	0
 4639 001c 00000000 		.long	0
 4640              		.section	.debug_line,"dr"
 4641              	Ldebug_line0:
 4642 0000 D0030000 		.section	.debug_str,"dr"
 4642      0200A300 
 4642      00000101 
 4642      FB0E0D00 
 4642      01010101 
 4643              		.ident	"GCC: (tdm-1) 5.1.0"
GAS LISTING C:\Users\Marwan\AppData\Local\Temp\ccZ5CEyO.s 			page 120


DEFINED SYMBOLS
                            *ABS*:00000000 main.cpp
C:\Users\Marwan\AppData\Local\Temp\ccZ5CEyO.s:6      .text:00000000 _glutInit_ATEXIT_HACK@8
C:\Users\Marwan\AppData\Local\Temp\ccZ5CEyO.s:33     .text:00000028 _glutCreateWindow_ATEXIT_HACK@4
C:\Users\Marwan\AppData\Local\Temp\ccZ5CEyO.s:56     .text:00000048 _glutCreateMenu_ATEXIT_HACK@4
C:\Users\Marwan\AppData\Local\Temp\ccZ5CEyO.s:80     .data:00000000 __ZL6slices
C:\Users\Marwan\AppData\Local\Temp\ccZ5CEyO.s:83     .data:00000004 __ZL6stacks
C:\Users\Marwan\AppData\Local\Temp\ccZ5CEyO.s:85     .bss:00000058 __ZL6useFog
C:\Users\Marwan\AppData\Local\Temp\ccZ5CEyO.s:89     .bss:00000000 _moonx
C:\Users\Marwan\AppData\Local\Temp\ccZ5CEyO.s:93     .bss:00000004 _moony
C:\Users\Marwan\AppData\Local\Temp\ccZ5CEyO.s:97     .bss:00000008 _sunx
C:\Users\Marwan\AppData\Local\Temp\ccZ5CEyO.s:101    .bss:0000000c _suny
C:\Users\Marwan\AppData\Local\Temp\ccZ5CEyO.s:105    .bss:00000010 _boatx
C:\Users\Marwan\AppData\Local\Temp\ccZ5CEyO.s:109    .bss:00000014 _cloudsx
C:\Users\Marwan\AppData\Local\Temp\ccZ5CEyO.s:113    .bss:00000018 _COLOR
C:\Users\Marwan\AppData\Local\Temp\ccZ5CEyO.s:118    .data:00000008 _direction
C:\Users\Marwan\AppData\Local\Temp\ccZ5CEyO.s:122    .data:0000000c _red
C:\Users\Marwan\AppData\Local\Temp\ccZ5CEyO.s:126    .data:00000010 _green
C:\Users\Marwan\AppData\Local\Temp\ccZ5CEyO.s:130    .data:00000014 _blue
C:\Users\Marwan\AppData\Local\Temp\ccZ5CEyO.s:135    .bss:0000001c _alpha
C:\Users\Marwan\AppData\Local\Temp\ccZ5CEyO.s:140    .data:00000018 _sunflag
C:\Users\Marwan\AppData\Local\Temp\ccZ5CEyO.s:145    .bss:00000020 _anglesun
C:\Users\Marwan\AppData\Local\Temp\ccZ5CEyO.s:150    .data:0000001c _moonflag
C:\Users\Marwan\AppData\Local\Temp\ccZ5CEyO.s:154    .data:00000020 _boatflag
C:\Users\Marwan\AppData\Local\Temp\ccZ5CEyO.s:159    .bss:00000028 _angle
C:\Users\Marwan\AppData\Local\Temp\ccZ5CEyO.s:163    .bss:0000002c _x
C:\Users\Marwan\AppData\Local\Temp\ccZ5CEyO.s:167    .bss:00000030 _cubesize
C:\Users\Marwan\AppData\Local\Temp\ccZ5CEyO.s:172    .data:00000024 _flag
C:\Users\Marwan\AppData\Local\Temp\ccZ5CEyO.s:177    .bss:00000038 _rotatee
C:\Users\Marwan\AppData\Local\Temp\ccZ5CEyO.s:181    .bss:0000003c _translateX
C:\Users\Marwan\AppData\Local\Temp\ccZ5CEyO.s:186    .data:00000028 _translateY
C:\Users\Marwan\AppData\Local\Temp\ccZ5CEyO.s:190    .data:0000002c _translateY2
C:\Users\Marwan\AppData\Local\Temp\ccZ5CEyO.s:194    .data:00000030 _ssize
C:\Users\Marwan\AppData\Local\Temp\ccZ5CEyO.s:200    .bss:00000040 _scale
C:\Users\Marwan\AppData\Local\Temp\ccZ5CEyO.s:205    .text:00000068 __Z4initv
C:\Users\Marwan\AppData\Local\Temp\ccZ5CEyO.s:237    .data:00000038 _xRotated
C:\Users\Marwan\AppData\Local\Temp\ccZ5CEyO.s:242    .bss:00000048 _yRotated
C:\Users\Marwan\AppData\Local\Temp\ccZ5CEyO.s:246    .bss:0000004c _zRotated
C:\Users\Marwan\AppData\Local\Temp\ccZ5CEyO.s:250    .bss:00000050 _anglePyramid
C:\Users\Marwan\AppData\Local\Temp\ccZ5CEyO.s:254    .bss:00000054 _angleCube
C:\Users\Marwan\AppData\Local\Temp\ccZ5CEyO.s:259    .data:0000003c _refreshMills
C:\Users\Marwan\AppData\Local\Temp\ccZ5CEyO.s:264    .text:0000009c __Z8keyboardhii
C:\Users\Marwan\AppData\Local\Temp\ccZ5CEyO.s:432    .text:0000021d __Z8triangleff
C:\Users\Marwan\AppData\Local\Temp\ccZ5CEyO.s:712    .text:000004f9 __Z4cubev
C:\Users\Marwan\AppData\Local\Temp\ccZ5CEyO.s:1066   .text:00000899 __Z6spherev
C:\Users\Marwan\AppData\Local\Temp\ccZ5CEyO.s:1117   .text:00000910 __Z4treeiii
C:\Users\Marwan\AppData\Local\Temp\ccZ5CEyO.s:1361   .text:00000bfb _main
C:\Users\Marwan\AppData\Local\Temp\ccZ5CEyO.s:1460   .text:00000d16 __Z7displayv
C:\Users\Marwan\AppData\Local\Temp\ccZ5CEyO.s:2950   .text:00001ecd __Z8idleFuncv
C:\Users\Marwan\AppData\Local\Temp\ccZ5CEyO.s:2972   .text:00001edb __Z5timeri
C:\Users\Marwan\AppData\Local\Temp\ccZ5CEyO.s:3051   .text:00001fa5 __Z7reshapeii
C:\Users\Marwan\AppData\Local\Temp\ccZ5CEyO.s:3103   .text:00002027 __Z7texturev

UNDEFINED SYMBOLS
___main
_exit
___glutInitWithExit@12
GAS LISTING C:\Users\Marwan\AppData\Local\Temp\ccZ5CEyO.s 			page 121


___glutCreateWindowWithExit@8
___glutCreateMenuWithExit@8
_glClearColor@16
_glutFullScreen@0
_glEnable@4
_glDisable@4
_glutPostRedisplay@0
_glLoadIdentity@0
_glTranslatef@12
_glRotatef@16
_glBegin@4
_glColor3f@12
_glVertex3f@12
_glEnd@0
_glPushMatrix@0
_glutSolidSphere@16
_glPopMatrix@0
_glTranslated@24
_glRotated@32
_glutSolidCone@24
_glutInitDisplayMode@4
_glutInitWindowPosition@8
_glutInitWindowSize@8
_glutDisplayFunc@4
_glutReshapeFunc@4
_glutKeyboardFunc@4
_glutIdleFunc@4
_glutTimerFunc@12
_glutMainLoop@0
_glClear@4
_glScalef@12
_glutSolidCube@8
_glColor3d@24
_glutSwapBuffers@0
_Sleep@4
_glViewport@16
_glMatrixMode@4
_gluPerspective@32
_glCullFace@4
_glDepthFunc@4
_glLightfv@12
_glMaterialfv@12
